Certificate:
    Data:
        Version: 3 (0x2)
        Serial Number: 11297790404748083223 (0x9cc9d083cdd38017)
    Signature Algorithm: ecdsa-with-SHA256
        Issuer: C=be, O=example, OU=org1, CN=org1.example.be
        Validity
            Not Before: Feb  2 07:19:17 2018 GMT
            Not After : Jan 31 07:19:17 2028 GMT
        Subject: C=be, O=example, OU=org1, CN=orderer.org1.example.be
        Subject Public Key Info:
            Public Key Algorithm: id-ecPublicKey
                Public-Key: (256 bit)
                pub: 
                    04:e0:c6:83:09:77:0c:ec:d1:f1:1b:b2:60:49:91:
                    9b:f5:6e:56:45:3f:a2:20:d3:66:69:8f:cf:c4:b4:
                    1f:7f:7c:91:4f:b3:55:26:8c:f5:a6:4e:96:b2:3a:
                    8f:b2:69:29:b9:48:62:41:cc:f8:ad:88:56:21:50:
                    ea:8d:7a:36:79
                ASN1 OID: prime256v1
                NIST CURVE: P-256
        X509v3 extensions:
            1.2.3.4.5.6.7.8.1: 
                ..{"attrs":{}}
            X509v3 Authority Key Identifier: 
                keyid:C3:1E:07:C3:70:32:2C:06:EF:FB:4C:01:84:3E:46:6C:36:1B:00:58

            X509v3 Basic Constraints: critical
                CA:FALSE
            X509v3 Subject Key Identifier: 
                5A:C3:8B:12:9D:44:F4:C6:9C:D7:15:2C:D9:7D:DF:C6:85:FF:F8:29
            X509v3 Key Usage: critical
                Digital Signature, Key Encipherment
            X509v3 Extended Key Usage: 
                TLS Web Server Authentication, TLS Web Client Authentication
    Signature Algorithm: ecdsa-with-SHA256
         30:44:02:21:00:a2:cf:a4:52:66:c9:28:1e:91:6f:d3:44:50:
         9f:d2:9a:d0:a2:1e:fb:db:24:eb:f5:79:5a:56:35:96:2e:8b:
         65:02:1f:06:48:8e:20:6b:03:11:16:e9:f0:15:6f:b2:eb:34:
         4d:a1:a5:cf:c8:ed:7d:c6:6b:2a:5b:1d:fd:dc:96:99
-----BEGIN CERTIFICATE-----
MIICKzCCAdKgAwIBAgIJAJzJ0IPN04AXMAoGCCqGSM49BAMCMEgxCzAJBgNVBAYT
AmJlMRAwDgYDVQQKDAdleGFtcGxlMQ0wCwYDVQQLDARvcmcxMRgwFgYDVQQDDA9v
cmcxLmV4YW1wbGUuYmUwHhcNMTgwMjAyMDcxOTE3WhcNMjgwMTMxMDcxOTE3WjBQ
MQswCQYDVQQGEwJiZTEQMA4GA1UECgwHZXhhbXBsZTENMAsGA1UECwwEb3JnMTEg
MB4GA1UEAwwXb3JkZXJlci5vcmcxLmV4YW1wbGUuYmUwWTATBgcqhkjOPQIBBggq
hkjOPQMBBwNCAATgxoMJdwzs0fEbsmBJkZv1blZFP6Ig02Zpj8/EtB9/fJFPs1Um
jPWmTpayOo+yaSm5SGJBzPitiFYhUOqNejZ5o4GcMIGZMBoGCCoDBAUGBwgBBA4M
DHsiYXR0cnMiOnt9fTAfBgNVHSMEGDAWgBTDHgfDcDIsBu/7TAGEPkZsNhsAWDAM
BgNVHRMBAf8EAjAAMB0GA1UdDgQWBBRaw4sSnUT0xpzXFSzZfd/Ghf/4KTAOBgNV
HQ8BAf8EBAMCBaAwHQYDVR0lBBYwFAYIKwYBBQUHAwEGCCsGAQUFBwMCMAoGCCqG
SM49BAMCA0cAMEQCIQCiz6RSZskoHpFv00RQn9Ka0KIe+9sk6/V5WlY1li6LZQIf
BkiOIGsDERbp8BVvsus0TaGlz8jtfcZrKlsd/dyWmQ==
-----END CERTIFICATE-----
