Certificate:
    Data:
        Version: 3 (0x2)
        Serial Number: 18223853923172150760 (0xfce82296c948ede8)
    Signature Algorithm: ecdsa-with-SHA256
        Issuer: CN=example.be, OU=ca, C=be, O=example
        Validity
            Not Before: Feb  2 07:19:13 2018 GMT
            Not After : Jan 28 07:19:13 2038 GMT
        Subject: CN=example.be, OU=ca, C=be, O=example
        Subject Public Key Info:
            Public Key Algorithm: id-ecPublicKey
                Public-Key: (256 bit)
                pub: 
                    04:7e:11:56:ba:28:99:2c:9e:76:7b:fd:92:95:e1:
                    3e:0a:d4:59:37:07:f8:75:91:dc:85:aa:9b:a6:67:
                    62:76:c2:99:35:5f:de:1a:ae:29:56:5d:ff:5e:36:
                    3d:ac:86:2d:66:53:62:9e:43:5b:f1:3d:b9:ff:60:
                    68:c3:65:57:67
                ASN1 OID: prime256v1
                NIST CURVE: P-256
        X509v3 extensions:
            X509v3 Subject Key Identifier: 
                E1:A1:EA:B4:94:89:1B:C8:EA:51:FD:9B:33:F6:D0:FD:0E:D9:0A:DA
            X509v3 Basic Constraints: critical
                CA:TRUE
            X509v3 Key Usage: critical
                Digital Signature, Key Encipherment, Certificate Sign, CRL Sign
            X509v3 Extended Key Usage: 
                Any Extended Key Usage
    Signature Algorithm: ecdsa-with-SHA256
         30:46:02:21:00:92:69:7f:4f:9e:ab:f1:04:c1:1d:b2:09:bb:
         b0:b7:09:c8:c8:7d:90:60:91:d8:5d:a3:47:d5:7e:a1:99:01:
         b1:02:21:00:84:83:ba:ee:02:aa:4e:31:5c:bb:10:53:c4:28:
         48:13:66:f4:f1:31:97:b0:64:f3:60:9b:59:34:6d:53:bb:a5
-----BEGIN CERTIFICATE-----
MIIBzTCCAXKgAwIBAgIJAPzoIpbJSO3oMAoGCCqGSM49BAMCMEExEzARBgNVBAMM
CmV4YW1wbGUuYmUxCzAJBgNVBAsMAmNhMQswCQYDVQQGEwJiZTEQMA4GA1UECgwH
ZXhhbXBsZTAeFw0xODAyMDIwNzE5MTNaFw0zODAxMjgwNzE5MTNaMEExEzARBgNV
BAMMCmV4YW1wbGUuYmUxCzAJBgNVBAsMAmNhMQswCQYDVQQGEwJiZTEQMA4GA1UE
CgwHZXhhbXBsZTBZMBMGByqGSM49AgEGCCqGSM49AwEHA0IABH4RVroomSyednv9
kpXhPgrUWTcH+HWR3IWqm6ZnYnbCmTVf3hquKVZd/142PayGLWZTYp5DW/E9uf9g
aMNlV2ejUzBRMB0GA1UdDgQWBBThoeq0lIkbyOpR/Zsz9tD9DtkK2jAPBgNVHRMB
Af8EBTADAQH/MA4GA1UdDwEB/wQEAwIBpjAPBgNVHSUECDAGBgRVHSUAMAoGCCqG
SM49BAMCA0kAMEYCIQCSaX9PnqvxBMEdsgm7sLcJyMh9kGCR2F2jR9V+oZkBsQIh
AISDuu4Cqk4xXLsQU8QoSBNm9PExl7Bk82CbWTRtU7ul
-----END CERTIFICATE-----
Certificate:
    Data:
        Version: 3 (0x2)
        Serial Number: 14867812469274241000 (0xce5514aaf236e7e8)
    Signature Algorithm: ecdsa-with-SHA256
        Issuer: CN=example.be, OU=ca, C=be, O=example
        Validity
            Not Before: Feb  2 07:19:13 2018 GMT
            Not After : Jan 31 07:19:13 2028 GMT
        Subject: C=be, O=example, OU=org1, CN=org1.example.be
        Subject Public Key Info:
            Public Key Algorithm: id-ecPublicKey
                Public-Key: (256 bit)
                pub: 
                    04:e0:41:67:64:9e:ea:b5:13:2d:08:c1:7f:f1:f1:
                    b9:e5:20:4d:a8:07:cc:33:59:71:53:c7:1a:bc:93:
                    fd:b3:d4:56:20:75:c8:75:77:36:c4:bf:25:e4:85:
                    0f:eb:9e:fb:3d:df:a5:b0:4e:99:1d:4e:da:e0:36:
                    62:3f:4f:fd:05
                ASN1 OID: prime256v1
                NIST CURVE: P-256
        X509v3 extensions:
            1.2.3.4.5.6.7.8.1: 
                ..{"attrs":{}}
            X509v3 Authority Key Identifier: 
                keyid:E1:A1:EA:B4:94:89:1B:C8:EA:51:FD:9B:33:F6:D0:FD:0E:D9:0A:DA

            X509v3 Basic Constraints: critical
                CA:TRUE
            X509v3 Subject Key Identifier: 
                45:C0:17:29:44:2D:3C:C0:F0:18:03:0F:8D:95:51:D2:4A:C9:5C:ED
            X509v3 Extended Key Usage: 
                Any Extended Key Usage
            X509v3 Key Usage: critical
                Digital Signature, Key Encipherment, Certificate Sign, CRL Sign
    Signature Algorithm: ecdsa-with-SHA256
         30:45:02:21:00:a8:72:14:00:1d:6e:4e:fc:06:80:e7:c2:51:
         79:93:56:d3:5c:fb:54:c7:81:e5:91:13:c6:ae:12:47:a9:b8:
         d4:02:20:2b:3f:5a:5b:a5:5a:61:bc:41:1f:58:72:90:fc:03:
         10:b8:1e:8d:f9:65:bf:52:72:46:be:8b:bc:04:3d:bc:7e
-----BEGIN CERTIFICATE-----
MIICEjCCAbigAwIBAgIJAM5VFKryNufoMAoGCCqGSM49BAMCMEExEzARBgNVBAMM
CmV4YW1wbGUuYmUxCzAJBgNVBAsMAmNhMQswCQYDVQQGEwJiZTEQMA4GA1UECgwH
ZXhhbXBsZTAeFw0xODAyMDIwNzE5MTNaFw0yODAxMzEwNzE5MTNaMEgxCzAJBgNV
BAYTAmJlMRAwDgYDVQQKDAdleGFtcGxlMQ0wCwYDVQQLDARvcmcxMRgwFgYDVQQD
DA9vcmcxLmV4YW1wbGUuYmUwWTATBgcqhkjOPQIBBggqhkjOPQMBBwNCAATgQWdk
nuq1Ey0IwX/x8bnlIE2oB8wzWXFTxxq8k/2z1FYgdch1dzbEvyXkhQ/rnvs936Ww
TpkdTtrgNmI/T/0Fo4GRMIGOMBoGCCoDBAUGBwgBBA4MDHsiYXR0cnMiOnt9fTAf
BgNVHSMEGDAWgBThoeq0lIkbyOpR/Zsz9tD9DtkK2jAPBgNVHRMBAf8EBTADAQH/
MB0GA1UdDgQWBBRFwBcpRC08wPAYAw+NlVHSSslc7TAPBgNVHSUECDAGBgRVHSUA
MA4GA1UdDwEB/wQEAwIBpjAKBggqhkjOPQQDAgNIADBFAiEAqHIUAB1uTvwGgOfC
UXmTVtNc+1THgeWRE8auEkepuNQCICs/WlulWmG8QR9YcpD8AxC4Ho35Zb9Scka+
i7wEPbx+
-----END CERTIFICATE-----
Certificate:
    Data:
        Version: 3 (0x2)
        Serial Number: 17071115506810567149 (0xece8c91b571b39ed)
    Signature Algorithm: ecdsa-with-SHA256
        Issuer: C=be, O=example, OU=org1, CN=org1.example.be
        Validity
            Not Before: Feb  2 07:19:17 2018 GMT
            Not After : Jan 31 07:19:17 2028 GMT
        Subject: C=be, O=example, OU=org1, CN=peer.org1.example.be
        Subject Public Key Info:
            Public Key Algorithm: id-ecPublicKey
                Public-Key: (256 bit)
                pub: 
                    04:dc:67:bd:08:26:be:15:48:73:05:37:ad:03:2c:
                    4b:34:e3:2b:00:ec:10:1f:00:3a:b4:52:13:c4:1e:
                    32:c0:63:11:d8:3e:70:e3:08:05:ab:02:af:51:b3:
                    8c:8c:27:40:03:f4:22:ae:da:df:83:be:2c:7e:21:
                    7c:65:96:58:b0
                ASN1 OID: prime256v1
                NIST CURVE: P-256
        X509v3 extensions:
            1.2.3.4.5.6.7.8.1: 
                ..{"attrs":{}}
            X509v3 Authority Key Identifier: 
                keyid:45:C0:17:29:44:2D:3C:C0:F0:18:03:0F:8D:95:51:D2:4A:C9:5C:ED

            X509v3 Basic Constraints: critical
                CA:FALSE
            X509v3 Subject Key Identifier: 
                C5:0C:B7:01:8F:75:B3:58:50:A2:A7:B9:D6:CE:95:38:FD:08:62:1A
            X509v3 Key Usage: critical
                Digital Signature
    Signature Algorithm: ecdsa-with-SHA256
         30:45:02:21:00:db:b0:ea:4b:f5:d5:a4:5c:ca:2d:6d:70:72:
         ff:6f:cb:a2:fb:23:7f:4e:cb:c5:67:17:f9:e1:76:d8:aa:6f:
         36:02:20:5f:3f:66:9c:66:e6:8f:01:02:9c:dc:13:f2:79:9e:
         8d:f2:0e:4b:20:7c:3c:6a:b0:17:26:c5:23:cd:57:ef:99
-----BEGIN CERTIFICATE-----
MIICCDCCAa6gAwIBAgIJAOzoyRtXGzntMAoGCCqGSM49BAMCMEgxCzAJBgNVBAYT
AmJlMRAwDgYDVQQKDAdleGFtcGxlMQ0wCwYDVQQLDARvcmcxMRgwFgYDVQQDDA9v
cmcxLmV4YW1wbGUuYmUwHhcNMTgwMjAyMDcxOTE3WhcNMjgwMTMxMDcxOTE3WjBN
MQswCQYDVQQGEwJiZTEQMA4GA1UECgwHZXhhbXBsZTENMAsGA1UECwwEb3JnMTEd
MBsGA1UEAwwUcGVlci5vcmcxLmV4YW1wbGUuYmUwWTATBgcqhkjOPQIBBggqhkjO
PQMBBwNCAATcZ70IJr4VSHMFN60DLEs04ysA7BAfADq0UhPEHjLAYxHYPnDjCAWr
Aq9Rs4yMJ0AD9CKu2t+Dvix+IXxllliwo3wwejAaBggqAwQFBgcIAQQODAx7ImF0
dHJzIjp7fX0wHwYDVR0jBBgwFoAURcAXKUQtPMDwGAMPjZVR0krJXO0wDAYDVR0T
AQH/BAIwADAdBgNVHQ4EFgQUxQy3AY91s1hQoqe51s6VOP0IYhowDgYDVR0PAQH/
BAQDAgeAMAoGCCqGSM49BAMCA0gAMEUCIQDbsOpL9dWkXMotbXBy/2/Lovsjf07L
xWcX+eF22KpvNgIgXz9mnGbmjwECnNwT8nmejfIOSyB8PGqwFybFI81X75k=
-----END CERTIFICATE-----
