Certificate:
    Data:
        Version: 3 (0x2)
        Serial Number: 18223853923172150760 (0xfce82296c948ede8)
    Signature Algorithm: ecdsa-with-SHA256
        Issuer: CN=example.be, OU=ca, C=be, O=example
        Validity
            Not Before: Feb  2 07:19:13 2018 GMT
            Not After : Jan 28 07:19:13 2038 GMT
        Subject: CN=example.be, OU=ca, C=be, O=example
        Subject Public Key Info:
            Public Key Algorithm: id-ecPublicKey
                Public-Key: (256 bit)
                pub: 
                    04:7e:11:56:ba:28:99:2c:9e:76:7b:fd:92:95:e1:
                    3e:0a:d4:59:37:07:f8:75:91:dc:85:aa:9b:a6:67:
                    62:76:c2:99:35:5f:de:1a:ae:29:56:5d:ff:5e:36:
                    3d:ac:86:2d:66:53:62:9e:43:5b:f1:3d:b9:ff:60:
                    68:c3:65:57:67
                ASN1 OID: prime256v1
                NIST CURVE: P-256
        X509v3 extensions:
            X509v3 Subject Key Identifier: 
                E1:A1:EA:B4:94:89:1B:C8:EA:51:FD:9B:33:F6:D0:FD:0E:D9:0A:DA
            X509v3 Basic Constraints: critical
                CA:TRUE
            X509v3 Key Usage: critical
                Digital Signature, Key Encipherment, Certificate Sign, CRL Sign
            X509v3 Extended Key Usage: 
                Any Extended Key Usage
    Signature Algorithm: ecdsa-with-SHA256
         30:46:02:21:00:92:69:7f:4f:9e:ab:f1:04:c1:1d:b2:09:bb:
         b0:b7:09:c8:c8:7d:90:60:91:d8:5d:a3:47:d5:7e:a1:99:01:
         b1:02:21:00:84:83:ba:ee:02:aa:4e:31:5c:bb:10:53:c4:28:
         48:13:66:f4:f1:31:97:b0:64:f3:60:9b:59:34:6d:53:bb:a5
-----BEGIN CERTIFICATE-----
MIIBzTCCAXKgAwIBAgIJAPzoIpbJSO3oMAoGCCqGSM49BAMCMEExEzARBgNVBAMM
CmV4YW1wbGUuYmUxCzAJBgNVBAsMAmNhMQswCQYDVQQGEwJiZTEQMA4GA1UECgwH
ZXhhbXBsZTAeFw0xODAyMDIwNzE5MTNaFw0zODAxMjgwNzE5MTNaMEExEzARBgNV
BAMMCmV4YW1wbGUuYmUxCzAJBgNVBAsMAmNhMQswCQYDVQQGEwJiZTEQMA4GA1UE
CgwHZXhhbXBsZTBZMBMGByqGSM49AgEGCCqGSM49AwEHA0IABH4RVroomSyednv9
kpXhPgrUWTcH+HWR3IWqm6ZnYnbCmTVf3hquKVZd/142PayGLWZTYp5DW/E9uf9g
aMNlV2ejUzBRMB0GA1UdDgQWBBThoeq0lIkbyOpR/Zsz9tD9DtkK2jAPBgNVHRMB
Af8EBTADAQH/MA4GA1UdDwEB/wQEAwIBpjAPBgNVHSUECDAGBgRVHSUAMAoGCCqG
SM49BAMCA0kAMEYCIQCSaX9PnqvxBMEdsgm7sLcJyMh9kGCR2F2jR9V+oZkBsQIh
AISDuu4Cqk4xXLsQU8QoSBNm9PExl7Bk82CbWTRtU7ul
-----END CERTIFICATE-----
Certificate:
    Data:
        Version: 3 (0x2)
        Serial Number: 14867812469274241000 (0xce5514aaf236e7e8)
    Signature Algorithm: ecdsa-with-SHA256
        Issuer: CN=example.be, OU=ca, C=be, O=example
        Validity
            Not Before: Feb  2 07:19:13 2018 GMT
            Not After : Jan 31 07:19:13 2028 GMT
        Subject: C=be, O=example, OU=org1, CN=org1.example.be
        Subject Public Key Info:
            Public Key Algorithm: id-ecPublicKey
                Public-Key: (256 bit)
                pub: 
                    04:e0:41:67:64:9e:ea:b5:13:2d:08:c1:7f:f1:f1:
                    b9:e5:20:4d:a8:07:cc:33:59:71:53:c7:1a:bc:93:
                    fd:b3:d4:56:20:75:c8:75:77:36:c4:bf:25:e4:85:
                    0f:eb:9e:fb:3d:df:a5:b0:4e:99:1d:4e:da:e0:36:
                    62:3f:4f:fd:05
                ASN1 OID: prime256v1
                NIST CURVE: P-256
        X509v3 extensions:
            1.2.3.4.5.6.7.8.1: 
                ..{"attrs":{}}
            X509v3 Authority Key Identifier: 
                keyid:E1:A1:EA:B4:94:89:1B:C8:EA:51:FD:9B:33:F6:D0:FD:0E:D9:0A:DA

            X509v3 Basic Constraints: critical
                CA:TRUE
            X509v3 Subject Key Identifier: 
                45:C0:17:29:44:2D:3C:C0:F0:18:03:0F:8D:95:51:D2:4A:C9:5C:ED
            X509v3 Extended Key Usage: 
                Any Extended Key Usage
            X509v3 Key Usage: critical
                Digital Signature, Key Encipherment, Certificate Sign, CRL Sign
    Signature Algorithm: ecdsa-with-SHA256
         30:45:02:21:00:a8:72:14:00:1d:6e:4e:fc:06:80:e7:c2:51:
         79:93:56:d3:5c:fb:54:c7:81:e5:91:13:c6:ae:12:47:a9:b8:
         d4:02:20:2b:3f:5a:5b:a5:5a:61:bc:41:1f:58:72:90:fc:03:
         10:b8:1e:8d:f9:65:bf:52:72:46:be:8b:bc:04:3d:bc:7e
-----BEGIN CERTIFICATE-----
MIICEjCCAbigAwIBAgIJAM5VFKryNufoMAoGCCqGSM49BAMCMEExEzARBgNVBAMM
CmV4YW1wbGUuYmUxCzAJBgNVBAsMAmNhMQswCQYDVQQGEwJiZTEQMA4GA1UECgwH
ZXhhbXBsZTAeFw0xODAyMDIwNzE5MTNaFw0yODAxMzEwNzE5MTNaMEgxCzAJBgNV
BAYTAmJlMRAwDgYDVQQKDAdleGFtcGxlMQ0wCwYDVQQLDARvcmcxMRgwFgYDVQQD
DA9vcmcxLmV4YW1wbGUuYmUwWTATBgcqhkjOPQIBBggqhkjOPQMBBwNCAATgQWdk
nuq1Ey0IwX/x8bnlIE2oB8wzWXFTxxq8k/2z1FYgdch1dzbEvyXkhQ/rnvs936Ww
TpkdTtrgNmI/T/0Fo4GRMIGOMBoGCCoDBAUGBwgBBA4MDHsiYXR0cnMiOnt9fTAf
BgNVHSMEGDAWgBThoeq0lIkbyOpR/Zsz9tD9DtkK2jAPBgNVHRMBAf8EBTADAQH/
MB0GA1UdDgQWBBRFwBcpRC08wPAYAw+NlVHSSslc7TAPBgNVHSUECDAGBgRVHSUA
MA4GA1UdDwEB/wQEAwIBpjAKBggqhkjOPQQDAgNIADBFAiEAqHIUAB1uTvwGgOfC
UXmTVtNc+1THgeWRE8auEkepuNQCICs/WlulWmG8QR9YcpD8AxC4Ho35Zb9Scka+
i7wEPbx+
-----END CERTIFICATE-----
Certificate:
    Data:
        Version: 3 (0x2)
        Serial Number: 11972398215209709641 (0xa62680be87187049)
    Signature Algorithm: ecdsa-with-SHA256
        Issuer: C=be, O=example, OU=org1, CN=org1.example.be
        Validity
            Not Before: Feb  2 07:19:17 2018 GMT
            Not After : Jan 31 07:19:17 2028 GMT
        Subject: C=be, O=example, OU=org1, CN=orderer.org1.example.be
        Subject Public Key Info:
            Public Key Algorithm: id-ecPublicKey
                Public-Key: (256 bit)
                pub: 
                    04:39:33:32:3f:ab:92:34:c7:f3:97:cc:2d:80:29:
                    11:88:cc:ee:27:b7:d5:1b:9d:9a:3e:43:4e:53:6c:
                    68:86:f2:00:cf:2f:f0:c7:81:d5:e3:57:a2:8a:1e:
                    ed:f1:a2:31:6d:99:62:66:2a:17:5d:41:f2:e4:d5:
                    1c:4f:93:09:c3
                ASN1 OID: prime256v1
                NIST CURVE: P-256
        X509v3 extensions:
            1.2.3.4.5.6.7.8.1: 
                ..{"attrs":{}}
            X509v3 Authority Key Identifier: 
                keyid:45:C0:17:29:44:2D:3C:C0:F0:18:03:0F:8D:95:51:D2:4A:C9:5C:ED

            X509v3 Basic Constraints: critical
                CA:FALSE
            X509v3 Subject Key Identifier: 
                D6:E6:7A:3A:CB:D7:E0:A5:F2:BD:46:57:60:08:B2:D6:9F:B1:69:5A
            X509v3 Key Usage: critical
                Digital Signature
    Signature Algorithm: ecdsa-with-SHA256
         30:44:02:20:63:62:42:5c:28:74:db:46:4b:86:80:75:f3:ad:
         d8:66:a6:26:55:0c:fe:dd:07:83:35:c8:09:75:bc:94:d9:f4:
         02:20:01:2a:ad:8c:78:fd:97:d5:33:20:36:74:dd:c8:a3:fd:
         39:b1:a7:7d:ef:11:ab:66:f7:b8:ff:84:53:74:41:bd
-----BEGIN CERTIFICATE-----
MIICCjCCAbGgAwIBAgIJAKYmgL6HGHBJMAoGCCqGSM49BAMCMEgxCzAJBgNVBAYT
AmJlMRAwDgYDVQQKDAdleGFtcGxlMQ0wCwYDVQQLDARvcmcxMRgwFgYDVQQDDA9v
cmcxLmV4YW1wbGUuYmUwHhcNMTgwMjAyMDcxOTE3WhcNMjgwMTMxMDcxOTE3WjBQ
MQswCQYDVQQGEwJiZTEQMA4GA1UECgwHZXhhbXBsZTENMAsGA1UECwwEb3JnMTEg
MB4GA1UEAwwXb3JkZXJlci5vcmcxLmV4YW1wbGUuYmUwWTATBgcqhkjOPQIBBggq
hkjOPQMBBwNCAAQ5MzI/q5I0x/OXzC2AKRGIzO4nt9UbnZo+Q05TbGiG8gDPL/DH
gdXjV6KKHu3xojFtmWJmKhddQfLk1RxPkwnDo3wwejAaBggqAwQFBgcIAQQODAx7
ImF0dHJzIjp7fX0wHwYDVR0jBBgwFoAURcAXKUQtPMDwGAMPjZVR0krJXO0wDAYD
VR0TAQH/BAIwADAdBgNVHQ4EFgQU1uZ6OsvX4KXyvUZXYAiy1p+xaVowDgYDVR0P
AQH/BAQDAgeAMAoGCCqGSM49BAMCA0cAMEQCIGNiQlwodNtGS4aAdfOt2GamJlUM
/t0HgzXICXW8lNn0AiABKq2MeP2X1TMgNnTdyKP9ObGnfe8Rq2b3uP+EU3RBvQ==
-----END CERTIFICATE-----
