Certificate:
    Data:
        Version: 3 (0x2)
        Serial Number: 9251032839062294658 (0x8062455a61c81082)
    Signature Algorithm: ecdsa-with-SHA256
        Issuer: C=be, O=example, OU=org1, CN=org1.example.be
        Validity
            Not Before: Feb  2 07:19:14 2018 GMT
            Not After : Jan 31 07:19:14 2028 GMT
        Subject: C=be, O=example, OU=org1, CN=admin.org1.example.be
        Subject Public Key Info:
            Public Key Algorithm: id-ecPublicKey
                Public-Key: (256 bit)
                pub: 
                    04:40:7d:92:d7:cd:8a:bb:64:6e:0b:13:d7:b1:c8:
                    ae:9b:eb:dd:b3:77:72:94:7f:bd:93:4b:30:df:f7:
                    39:00:59:60:f5:71:54:91:be:81:6c:23:91:70:64:
                    08:76:f1:6f:4c:57:69:24:a6:d9:21:d0:fa:31:e0:
                    9b:e3:2a:9b:b4
                ASN1 OID: prime256v1
                NIST CURVE: P-256
        X509v3 extensions:
            1.2.3.4.5.6.7.8.1: 
                ..{"attrs":{}}
            X509v3 Authority Key Identifier: 
                keyid:C3:1E:07:C3:70:32:2C:06:EF:FB:4C:01:84:3E:46:6C:36:1B:00:58

            X509v3 Basic Constraints: critical
                CA:FALSE
            X509v3 Subject Key Identifier: 
                53:FC:C7:BB:94:AA:BE:D4:FF:FD:18:D3:A8:F9:82:79:1B:F8:6F:25
            X509v3 Key Usage: critical
                Digital Signature, Key Encipherment
            X509v3 Extended Key Usage: 
                TLS Web Server Authentication, TLS Web Client Authentication
    Signature Algorithm: ecdsa-with-SHA256
         30:46:02:21:00:8f:b4:b3:f7:b7:75:88:73:4e:a8:ee:f9:5d:
         5c:08:de:f4:93:f2:4d:16:39:20:7e:a9:19:a1:e7:2f:63:86:
         08:02:21:00:e6:bc:bc:3c:3f:e3:1c:34:92:7b:52:01:bc:3c:
         e8:cf:6a:c9:a1:50:bd:f6:79:f6:06:08:39:c0:13:cb:88:29
-----BEGIN CERTIFICATE-----
MIICKzCCAdCgAwIBAgIJAIBiRVphyBCCMAoGCCqGSM49BAMCMEgxCzAJBgNVBAYT
AmJlMRAwDgYDVQQKDAdleGFtcGxlMQ0wCwYDVQQLDARvcmcxMRgwFgYDVQQDDA9v
cmcxLmV4YW1wbGUuYmUwHhcNMTgwMjAyMDcxOTE0WhcNMjgwMTMxMDcxOTE0WjBO
MQswCQYDVQQGEwJiZTEQMA4GA1UECgwHZXhhbXBsZTENMAsGA1UECwwEb3JnMTEe
MBwGA1UEAwwVYWRtaW4ub3JnMS5leGFtcGxlLmJlMFkwEwYHKoZIzj0CAQYIKoZI
zj0DAQcDQgAEQH2S182Ku2RuCxPXscium+vds3dylH+9k0sw3/c5AFlg9XFUkb6B
bCORcGQIdvFvTFdpJKbZIdD6MeCb4yqbtKOBnDCBmTAaBggqAwQFBgcIAQQODAx7
ImF0dHJzIjp7fX0wHwYDVR0jBBgwFoAUwx4Hw3AyLAbv+0wBhD5GbDYbAFgwDAYD
VR0TAQH/BAIwADAdBgNVHQ4EFgQUU/zHu5SqvtT//RjTqPmCeRv4byUwDgYDVR0P
AQH/BAQDAgWgMB0GA1UdJQQWMBQGCCsGAQUFBwMBBggrBgEFBQcDAjAKBggqhkjO
PQQDAgNJADBGAiEAj7Sz97d1iHNOqO75XVwI3vST8k0WOSB+qRmh5y9jhggCIQDm
vLw8P+McNJJ7UgG8POjPasmhUL32efYGCDnAE8uIKQ==
-----END CERTIFICATE-----
