Certificate:
    Data:
        Version: 3 (0x2)
        Serial Number: 17071115506810567149 (0xece8c91b571b39ed)
    Signature Algorithm: ecdsa-with-SHA256
        Issuer: C=be, O=example, OU=org1, CN=org1.example.be
        Validity
            Not Before: Feb  2 07:19:17 2018 GMT
            Not After : Jan 31 07:19:17 2028 GMT
        Subject: C=be, O=example, OU=org1, CN=peer.org1.example.be
        Subject Public Key Info:
            Public Key Algorithm: id-ecPublicKey
                Public-Key: (256 bit)
                pub: 
                    04:dc:67:bd:08:26:be:15:48:73:05:37:ad:03:2c:
                    4b:34:e3:2b:00:ec:10:1f:00:3a:b4:52:13:c4:1e:
                    32:c0:63:11:d8:3e:70:e3:08:05:ab:02:af:51:b3:
                    8c:8c:27:40:03:f4:22:ae:da:df:83:be:2c:7e:21:
                    7c:65:96:58:b0
                ASN1 OID: prime256v1
                NIST CURVE: P-256
        X509v3 extensions:
            1.2.3.4.5.6.7.8.1: 
                ..{"attrs":{}}
            X509v3 Authority Key Identifier: 
                keyid:45:C0:17:29:44:2D:3C:C0:F0:18:03:0F:8D:95:51:D2:4A:C9:5C:ED

            X509v3 Basic Constraints: critical
                CA:FALSE
            X509v3 Subject Key Identifier: 
                C5:0C:B7:01:8F:75:B3:58:50:A2:A7:B9:D6:CE:95:38:FD:08:62:1A
            X509v3 Key Usage: critical
                Digital Signature
    Signature Algorithm: ecdsa-with-SHA256
         30:45:02:21:00:db:b0:ea:4b:f5:d5:a4:5c:ca:2d:6d:70:72:
         ff:6f:cb:a2:fb:23:7f:4e:cb:c5:67:17:f9:e1:76:d8:aa:6f:
         36:02:20:5f:3f:66:9c:66:e6:8f:01:02:9c:dc:13:f2:79:9e:
         8d:f2:0e:4b:20:7c:3c:6a:b0:17:26:c5:23:cd:57:ef:99
-----BEGIN CERTIFICATE-----
MIICCDCCAa6gAwIBAgIJAOzoyRtXGzntMAoGCCqGSM49BAMCMEgxCzAJBgNVBAYT
AmJlMRAwDgYDVQQKDAdleGFtcGxlMQ0wCwYDVQQLDARvcmcxMRgwFgYDVQQDDA9v
cmcxLmV4YW1wbGUuYmUwHhcNMTgwMjAyMDcxOTE3WhcNMjgwMTMxMDcxOTE3WjBN
MQswCQYDVQQGEwJiZTEQMA4GA1UECgwHZXhhbXBsZTENMAsGA1UECwwEb3JnMTEd
MBsGA1UEAwwUcGVlci5vcmcxLmV4YW1wbGUuYmUwWTATBgcqhkjOPQIBBggqhkjO
PQMBBwNCAATcZ70IJr4VSHMFN60DLEs04ysA7BAfADq0UhPEHjLAYxHYPnDjCAWr
Aq9Rs4yMJ0AD9CKu2t+Dvix+IXxllliwo3wwejAaBggqAwQFBgcIAQQODAx7ImF0
dHJzIjp7fX0wHwYDVR0jBBgwFoAURcAXKUQtPMDwGAMPjZVR0krJXO0wDAYDVR0T
AQH/BAIwADAdBgNVHQ4EFgQUxQy3AY91s1hQoqe51s6VOP0IYhowDgYDVR0PAQH/
BAQDAgeAMAoGCCqGSM49BAMCA0gAMEUCIQDbsOpL9dWkXMotbXBy/2/Lovsjf07L
xWcX+eF22KpvNgIgXz9mnGbmjwECnNwT8nmejfIOSyB8PGqwFybFI81X75k=
-----END CERTIFICATE-----
