Certificate:
    Data:
        Version: 3 (0x2)
        Serial Number: 10634628635525606146 (0x9395ca663ab36b02)
    Signature Algorithm: ecdsa-with-SHA256
        Issuer: C=be, O=example, OU=org1, CN=org1.example.be
        Validity
            Not Before: Feb  2 07:19:18 2018 GMT
            Not After : Jan 31 07:19:18 2028 GMT
        Subject: C=be, O=example, OU=org1, CN=peer.org1.example.be
        Subject Public Key Info:
            Public Key Algorithm: id-ecPublicKey
                Public-Key: (256 bit)
                pub: 
                    04:24:d6:f2:38:9b:8d:4d:23:fc:e5:52:f4:b7:67:
                    ba:92:8f:6c:bb:6f:86:a0:46:2d:f6:63:7f:05:4d:
                    fa:96:4b:18:e6:d0:77:80:84:68:fa:3f:45:1b:da:
                    29:ec:66:48:8c:3d:2f:e5:b1:6b:bc:eb:f3:a5:91:
                    89:21:2a:c6:46
                ASN1 OID: prime256v1
                NIST CURVE: P-256
        X509v3 extensions:
            1.2.3.4.5.6.7.8.1: 
                ..{"attrs":{}}
            X509v3 Authority Key Identifier: 
                keyid:C3:1E:07:C3:70:32:2C:06:EF:FB:4C:01:84:3E:46:6C:36:1B:00:58

            X509v3 Basic Constraints: critical
                CA:FALSE
            X509v3 Subject Key Identifier: 
                A0:A4:08:AF:1A:D2:DD:2C:28:9A:FB:08:06:98:60:C2:13:56:1E:68
            X509v3 Key Usage: critical
                Digital Signature, Key Encipherment
            X509v3 Extended Key Usage: 
                TLS Web Server Authentication, TLS Web Client Authentication
    Signature Algorithm: ecdsa-with-SHA256
         30:44:02:20:4c:5a:f9:d7:76:83:2b:15:cd:0b:fa:9f:a0:63:
         7d:38:10:2c:1b:9c:2e:c9:7b:da:81:c2:56:fd:68:c6:7e:bc:
         02:20:09:2d:5e:05:38:a7:2b:87:c6:96:9a:93:ff:c6:3f:17:
         87:ad:1b:66:f7:de:e0:41:0f:b3:ca:69:20:1f:ad:67
-----BEGIN CERTIFICATE-----
MIICKDCCAc+gAwIBAgIJAJOVymY6s2sCMAoGCCqGSM49BAMCMEgxCzAJBgNVBAYT
AmJlMRAwDgYDVQQKDAdleGFtcGxlMQ0wCwYDVQQLDARvcmcxMRgwFgYDVQQDDA9v
cmcxLmV4YW1wbGUuYmUwHhcNMTgwMjAyMDcxOTE4WhcNMjgwMTMxMDcxOTE4WjBN
MQswCQYDVQQGEwJiZTEQMA4GA1UECgwHZXhhbXBsZTENMAsGA1UECwwEb3JnMTEd
MBsGA1UEAwwUcGVlci5vcmcxLmV4YW1wbGUuYmUwWTATBgcqhkjOPQIBBggqhkjO
PQMBBwNCAAQk1vI4m41NI/zlUvS3Z7qSj2y7b4agRi32Y38FTfqWSxjm0HeAhGj6
P0Ub2insZkiMPS/lsWu86/OlkYkhKsZGo4GcMIGZMBoGCCoDBAUGBwgBBA4MDHsi
YXR0cnMiOnt9fTAfBgNVHSMEGDAWgBTDHgfDcDIsBu/7TAGEPkZsNhsAWDAMBgNV
HRMBAf8EAjAAMB0GA1UdDgQWBBSgpAivGtLdLCia+wgGmGDCE1YeaDAOBgNVHQ8B
Af8EBAMCBaAwHQYDVR0lBBYwFAYIKwYBBQUHAwEGCCsGAQUFBwMCMAoGCCqGSM49
BAMCA0cAMEQCIExa+dd2gysVzQv6n6BjfTgQLBucLsl72oHCVv1oxn68AiAJLV4F
OKcrh8aWmpP/xj8Xh60bZvfe4EEPs8ppIB+tZw==
-----END CERTIFICATE-----
