Certificate:
    Data:
        Version: 3 (0x2)
        Serial Number: 18223853923172150760 (0xfce82296c948ede8)
    Signature Algorithm: ecdsa-with-SHA256
        Issuer: CN=example.be, OU=ca, C=be, O=example
        Validity
            Not Before: Feb  2 07:19:13 2018 GMT
            Not After : Jan 28 07:19:13 2038 GMT
        Subject: CN=example.be, OU=ca, C=be, O=example
        Subject Public Key Info:
            Public Key Algorithm: id-ecPublicKey
                Public-Key: (256 bit)
                pub: 
                    04:7e:11:56:ba:28:99:2c:9e:76:7b:fd:92:95:e1:
                    3e:0a:d4:59:37:07:f8:75:91:dc:85:aa:9b:a6:67:
                    62:76:c2:99:35:5f:de:1a:ae:29:56:5d:ff:5e:36:
                    3d:ac:86:2d:66:53:62:9e:43:5b:f1:3d:b9:ff:60:
                    68:c3:65:57:67
                ASN1 OID: prime256v1
                NIST CURVE: P-256
        X509v3 extensions:
            X509v3 Subject Key Identifier: 
                E1:A1:EA:B4:94:89:1B:C8:EA:51:FD:9B:33:F6:D0:FD:0E:D9:0A:DA
            X509v3 Basic Constraints: critical
                CA:TRUE
            X509v3 Key Usage: critical
                Digital Signature, Key Encipherment, Certificate Sign, CRL Sign
            X509v3 Extended Key Usage: 
                Any Extended Key Usage
    Signature Algorithm: ecdsa-with-SHA256
         30:46:02:21:00:92:69:7f:4f:9e:ab:f1:04:c1:1d:b2:09:bb:
         b0:b7:09:c8:c8:7d:90:60:91:d8:5d:a3:47:d5:7e:a1:99:01:
         b1:02:21:00:84:83:ba:ee:02:aa:4e:31:5c:bb:10:53:c4:28:
         48:13:66:f4:f1:31:97:b0:64:f3:60:9b:59:34:6d:53:bb:a5
-----BEGIN CERTIFICATE-----
MIIBzTCCAXKgAwIBAgIJAPzoIpbJSO3oMAoGCCqGSM49BAMCMEExEzARBgNVBAMM
CmV4YW1wbGUuYmUxCzAJBgNVBAsMAmNhMQswCQYDVQQGEwJiZTEQMA4GA1UECgwH
ZXhhbXBsZTAeFw0xODAyMDIwNzE5MTNaFw0zODAxMjgwNzE5MTNaMEExEzARBgNV
BAMMCmV4YW1wbGUuYmUxCzAJBgNVBAsMAmNhMQswCQYDVQQGEwJiZTEQMA4GA1UE
CgwHZXhhbXBsZTBZMBMGByqGSM49AgEGCCqGSM49AwEHA0IABH4RVroomSyednv9
kpXhPgrUWTcH+HWR3IWqm6ZnYnbCmTVf3hquKVZd/142PayGLWZTYp5DW/E9uf9g
aMNlV2ejUzBRMB0GA1UdDgQWBBThoeq0lIkbyOpR/Zsz9tD9DtkK2jAPBgNVHRMB
Af8EBTADAQH/MA4GA1UdDwEB/wQEAwIBpjAPBgNVHSUECDAGBgRVHSUAMAoGCCqG
SM49BAMCA0kAMEYCIQCSaX9PnqvxBMEdsgm7sLcJyMh9kGCR2F2jR9V+oZkBsQIh
AISDuu4Cqk4xXLsQU8QoSBNm9PExl7Bk82CbWTRtU7ul
-----END CERTIFICATE-----
Certificate:
    Data:
        Version: 3 (0x2)
        Serial Number: 14867812469274241000 (0xce5514aaf236e7e8)
    Signature Algorithm: ecdsa-with-SHA256
        Issuer: CN=example.be, OU=ca, C=be, O=example
        Validity
            Not Before: Feb  2 07:19:13 2018 GMT
            Not After : Jan 31 07:19:13 2028 GMT
        Subject: C=be, O=example, OU=org1, CN=org1.example.be
        Subject Public Key Info:
            Public Key Algorithm: id-ecPublicKey
                Public-Key: (256 bit)
                pub: 
                    04:e0:41:67:64:9e:ea:b5:13:2d:08:c1:7f:f1:f1:
                    b9:e5:20:4d:a8:07:cc:33:59:71:53:c7:1a:bc:93:
                    fd:b3:d4:56:20:75:c8:75:77:36:c4:bf:25:e4:85:
                    0f:eb:9e:fb:3d:df:a5:b0:4e:99:1d:4e:da:e0:36:
                    62:3f:4f:fd:05
                ASN1 OID: prime256v1
                NIST CURVE: P-256
        X509v3 extensions:
            1.2.3.4.5.6.7.8.1: 
                ..{"attrs":{}}
            X509v3 Authority Key Identifier: 
                keyid:E1:A1:EA:B4:94:89:1B:C8:EA:51:FD:9B:33:F6:D0:FD:0E:D9:0A:DA

            X509v3 Basic Constraints: critical
                CA:TRUE
            X509v3 Subject Key Identifier: 
                45:C0:17:29:44:2D:3C:C0:F0:18:03:0F:8D:95:51:D2:4A:C9:5C:ED
            X509v3 Extended Key Usage: 
                Any Extended Key Usage
            X509v3 Key Usage: critical
                Digital Signature, Key Encipherment, Certificate Sign, CRL Sign
    Signature Algorithm: ecdsa-with-SHA256
         30:45:02:21:00:a8:72:14:00:1d:6e:4e:fc:06:80:e7:c2:51:
         79:93:56:d3:5c:fb:54:c7:81:e5:91:13:c6:ae:12:47:a9:b8:
         d4:02:20:2b:3f:5a:5b:a5:5a:61:bc:41:1f:58:72:90:fc:03:
         10:b8:1e:8d:f9:65:bf:52:72:46:be:8b:bc:04:3d:bc:7e
-----BEGIN CERTIFICATE-----
MIICEjCCAbigAwIBAgIJAM5VFKryNufoMAoGCCqGSM49BAMCMEExEzARBgNVBAMM
CmV4YW1wbGUuYmUxCzAJBgNVBAsMAmNhMQswCQYDVQQGEwJiZTEQMA4GA1UECgwH
ZXhhbXBsZTAeFw0xODAyMDIwNzE5MTNaFw0yODAxMzEwNzE5MTNaMEgxCzAJBgNV
BAYTAmJlMRAwDgYDVQQKDAdleGFtcGxlMQ0wCwYDVQQLDARvcmcxMRgwFgYDVQQD
DA9vcmcxLmV4YW1wbGUuYmUwWTATBgcqhkjOPQIBBggqhkjOPQMBBwNCAATgQWdk
nuq1Ey0IwX/x8bnlIE2oB8wzWXFTxxq8k/2z1FYgdch1dzbEvyXkhQ/rnvs936Ww
TpkdTtrgNmI/T/0Fo4GRMIGOMBoGCCoDBAUGBwgBBA4MDHsiYXR0cnMiOnt9fTAf
BgNVHSMEGDAWgBThoeq0lIkbyOpR/Zsz9tD9DtkK2jAPBgNVHRMBAf8EBTADAQH/
MB0GA1UdDgQWBBRFwBcpRC08wPAYAw+NlVHSSslc7TAPBgNVHSUECDAGBgRVHSUA
MA4GA1UdDwEB/wQEAwIBpjAKBggqhkjOPQQDAgNIADBFAiEAqHIUAB1uTvwGgOfC
UXmTVtNc+1THgeWRE8auEkepuNQCICs/WlulWmG8QR9YcpD8AxC4Ho35Zb9Scka+
i7wEPbx+
-----END CERTIFICATE-----
Certificate:
    Data:
        Version: 3 (0x2)
        Serial Number: 18427842951971351252 (0xffbcd987a8f02ad4)
    Signature Algorithm: ecdsa-with-SHA256
        Issuer: C=be, O=example, OU=org1, CN=org1.example.be
        Validity
            Not Before: Feb  2 07:19:15 2018 GMT
            Not After : Jan 31 07:19:15 2028 GMT
        Subject: C=be, O=example, OU=org1, CN=user-1.org1.example.be
        Subject Public Key Info:
            Public Key Algorithm: id-ecPublicKey
                Public-Key: (256 bit)
                pub: 
                    04:fc:84:bd:66:bd:a3:16:88:c9:2f:39:ee:cb:0e:
                    41:5c:05:3f:11:04:a5:d3:a0:01:66:0d:32:de:f0:
                    b8:4c:45:e7:cd:ea:ab:28:7b:db:35:9c:63:3c:4b:
                    ae:35:4c:81:65:c4:0a:fb:07:3b:ad:65:74:3e:8b:
                    fe:53:3f:9a:55
                ASN1 OID: prime256v1
                NIST CURVE: P-256
        X509v3 extensions:
            1.2.3.4.5.6.7.8.1: 
                ..{"attrs":{}}
            X509v3 Authority Key Identifier: 
                keyid:45:C0:17:29:44:2D:3C:C0:F0:18:03:0F:8D:95:51:D2:4A:C9:5C:ED

            X509v3 Basic Constraints: critical
                CA:FALSE
            X509v3 Subject Key Identifier: 
                C2:1E:3B:06:7F:8A:1F:88:98:02:A4:AC:C3:FD:BD:DA:C2:69:3E:FF
            X509v3 Key Usage: critical
                Digital Signature
    Signature Algorithm: ecdsa-with-SHA256
         30:46:02:21:00:f6:55:8b:c1:57:59:5d:e4:d1:d0:17:4f:8c:
         dc:6a:71:c7:af:ae:be:60:c2:d7:89:eb:a2:3f:26:51:63:72:
         7e:02:21:00:ef:89:7b:91:23:c2:77:3f:a4:7d:f6:fd:fe:d6:
         e6:76:b2:0a:5f:3d:04:8b:87:ad:c1:62:5c:c2:88:43:75:d2
-----BEGIN CERTIFICATE-----
MIICCzCCAbCgAwIBAgIJAP+82Yeo8CrUMAoGCCqGSM49BAMCMEgxCzAJBgNVBAYT
AmJlMRAwDgYDVQQKDAdleGFtcGxlMQ0wCwYDVQQLDARvcmcxMRgwFgYDVQQDDA9v
cmcxLmV4YW1wbGUuYmUwHhcNMTgwMjAyMDcxOTE1WhcNMjgwMTMxMDcxOTE1WjBP
MQswCQYDVQQGEwJiZTEQMA4GA1UECgwHZXhhbXBsZTENMAsGA1UECwwEb3JnMTEf
MB0GA1UEAwwWdXNlci0xLm9yZzEuZXhhbXBsZS5iZTBZMBMGByqGSM49AgEGCCqG
SM49AwEHA0IABPyEvWa9oxaIyS857ssOQVwFPxEEpdOgAWYNMt7wuExF583qqyh7
2zWcYzxLrjVMgWXECvsHO61ldD6L/lM/mlWjfDB6MBoGCCoDBAUGBwgBBA4MDHsi
YXR0cnMiOnt9fTAfBgNVHSMEGDAWgBRFwBcpRC08wPAYAw+NlVHSSslc7TAMBgNV
HRMBAf8EAjAAMB0GA1UdDgQWBBTCHjsGf4ofiJgCpKzD/b3awmk+/zAOBgNVHQ8B
Af8EBAMCB4AwCgYIKoZIzj0EAwIDSQAwRgIhAPZVi8FXWV3k0dAXT4zcanHHr66+
YMLXieuiPyZRY3J+AiEA74l7kSPCdz+kffb9/tbmdrIKXz0Ei4etwWJcwohDddI=
-----END CERTIFICATE-----
