Certificate:
    Data:
        Version: 3 (0x2)
        Serial Number: 18223853923172150760 (0xfce82296c948ede8)
    Signature Algorithm: ecdsa-with-SHA256
        Issuer: CN=example.be, OU=ca, C=be, O=example
        Validity
            Not Before: Feb  2 07:19:13 2018 GMT
            Not After : Jan 28 07:19:13 2038 GMT
        Subject: CN=example.be, OU=ca, C=be, O=example
        Subject Public Key Info:
            Public Key Algorithm: id-ecPublicKey
                Public-Key: (256 bit)
                pub: 
                    04:7e:11:56:ba:28:99:2c:9e:76:7b:fd:92:95:e1:
                    3e:0a:d4:59:37:07:f8:75:91:dc:85:aa:9b:a6:67:
                    62:76:c2:99:35:5f:de:1a:ae:29:56:5d:ff:5e:36:
                    3d:ac:86:2d:66:53:62:9e:43:5b:f1:3d:b9:ff:60:
                    68:c3:65:57:67
                ASN1 OID: prime256v1
                NIST CURVE: P-256
        X509v3 extensions:
            X509v3 Subject Key Identifier: 
                E1:A1:EA:B4:94:89:1B:C8:EA:51:FD:9B:33:F6:D0:FD:0E:D9:0A:DA
            X509v3 Basic Constraints: critical
                CA:TRUE
            X509v3 Key Usage: critical
                Digital Signature, Key Encipherment, Certificate Sign, CRL Sign
            X509v3 Extended Key Usage: 
                Any Extended Key Usage
    Signature Algorithm: ecdsa-with-SHA256
         30:46:02:21:00:92:69:7f:4f:9e:ab:f1:04:c1:1d:b2:09:bb:
         b0:b7:09:c8:c8:7d:90:60:91:d8:5d:a3:47:d5:7e:a1:99:01:
         b1:02:21:00:84:83:ba:ee:02:aa:4e:31:5c:bb:10:53:c4:28:
         48:13:66:f4:f1:31:97:b0:64:f3:60:9b:59:34:6d:53:bb:a5
-----BEGIN CERTIFICATE-----
MIIBzTCCAXKgAwIBAgIJAPzoIpbJSO3oMAoGCCqGSM49BAMCMEExEzARBgNVBAMM
CmV4YW1wbGUuYmUxCzAJBgNVBAsMAmNhMQswCQYDVQQGEwJiZTEQMA4GA1UECgwH
ZXhhbXBsZTAeFw0xODAyMDIwNzE5MTNaFw0zODAxMjgwNzE5MTNaMEExEzARBgNV
BAMMCmV4YW1wbGUuYmUxCzAJBgNVBAsMAmNhMQswCQYDVQQGEwJiZTEQMA4GA1UE
CgwHZXhhbXBsZTBZMBMGByqGSM49AgEGCCqGSM49AwEHA0IABH4RVroomSyednv9
kpXhPgrUWTcH+HWR3IWqm6ZnYnbCmTVf3hquKVZd/142PayGLWZTYp5DW/E9uf9g
aMNlV2ejUzBRMB0GA1UdDgQWBBThoeq0lIkbyOpR/Zsz9tD9DtkK2jAPBgNVHRMB
Af8EBTADAQH/MA4GA1UdDwEB/wQEAwIBpjAPBgNVHSUECDAGBgRVHSUAMAoGCCqG
SM49BAMCA0kAMEYCIQCSaX9PnqvxBMEdsgm7sLcJyMh9kGCR2F2jR9V+oZkBsQIh
AISDuu4Cqk4xXLsQU8QoSBNm9PExl7Bk82CbWTRtU7ul
-----END CERTIFICATE-----
Certificate:
    Data:
        Version: 3 (0x2)
        Serial Number: 13074927343767871763 (0xb57379252d536113)
    Signature Algorithm: ecdsa-with-SHA256
        Issuer: CN=example.be, OU=ca, C=be, O=example
        Validity
            Not Before: Feb  2 07:19:13 2018 GMT
            Not After : Jan 31 07:19:13 2028 GMT
        Subject: C=be, O=example, OU=org1, CN=org1.example.be
        Subject Public Key Info:
            Public Key Algorithm: id-ecPublicKey
                Public-Key: (256 bit)
                pub: 
                    04:25:a1:2d:85:f2:cd:2d:a8:93:53:e9:1f:b8:04:
                    33:37:af:e2:66:36:12:1d:0f:2c:0e:bd:ac:56:14:
                    92:19:bc:e0:d8:e8:66:96:28:b6:e7:3e:c3:67:e3:
                    94:2d:27:74:3e:08:b2:f3:90:82:be:6b:2a:7c:00:
                    8f:f2:16:98:57
                ASN1 OID: prime256v1
                NIST CURVE: P-256
        X509v3 extensions:
            1.2.3.4.5.6.7.8.1: 
                ..{"attrs":{}}
            X509v3 Authority Key Identifier: 
                keyid:E1:A1:EA:B4:94:89:1B:C8:EA:51:FD:9B:33:F6:D0:FD:0E:D9:0A:DA

            X509v3 Basic Constraints: critical
                CA:TRUE
            X509v3 Subject Key Identifier: 
                C3:1E:07:C3:70:32:2C:06:EF:FB:4C:01:84:3E:46:6C:36:1B:00:58
            X509v3 Key Usage: critical
                Digital Signature, Key Encipherment, Certificate Sign, CRL Sign
            X509v3 Extended Key Usage: 
                TLS Web Server Authentication, TLS Web Client Authentication
    Signature Algorithm: ecdsa-with-SHA256
         30:44:02:20:65:54:02:6e:d5:53:ee:2c:cf:61:29:f5:61:f5:
         2b:25:f3:9d:be:6d:04:c0:4a:b6:f5:3f:5a:19:79:9a:39:19:
         02:20:66:de:3c:3c:0c:49:77:d7:88:49:c6:09:c6:d3:2c:d0:
         67:ee:0e:43:e9:76:e2:71:29:07:9e:9d:b1:3a:a6:02
-----BEGIN CERTIFICATE-----
MIICHzCCAcagAwIBAgIJALVzeSUtU2ETMAoGCCqGSM49BAMCMEExEzARBgNVBAMM
CmV4YW1wbGUuYmUxCzAJBgNVBAsMAmNhMQswCQYDVQQGEwJiZTEQMA4GA1UECgwH
ZXhhbXBsZTAeFw0xODAyMDIwNzE5MTNaFw0yODAxMzEwNzE5MTNaMEgxCzAJBgNV
BAYTAmJlMRAwDgYDVQQKDAdleGFtcGxlMQ0wCwYDVQQLDARvcmcxMRgwFgYDVQQD
DA9vcmcxLmV4YW1wbGUuYmUwWTATBgcqhkjOPQIBBggqhkjOPQMBBwNCAAQloS2F
8s0tqJNT6R+4BDM3r+JmNhIdDywOvaxWFJIZvODY6GaWKLbnPsNn45QtJ3Q+CLLz
kIK+ayp8AI/yFphXo4GfMIGcMBoGCCoDBAUGBwgBBA4MDHsiYXR0cnMiOnt9fTAf
BgNVHSMEGDAWgBThoeq0lIkbyOpR/Zsz9tD9DtkK2jAPBgNVHRMBAf8EBTADAQH/
MB0GA1UdDgQWBBTDHgfDcDIsBu/7TAGEPkZsNhsAWDAOBgNVHQ8BAf8EBAMCAaYw
HQYDVR0lBBYwFAYIKwYBBQUHAwEGCCsGAQUFBwMCMAoGCCqGSM49BAMCA0cAMEQC
IGVUAm7VU+4sz2Ep9WH1KyXznb5tBMBKtvU/Whl5mjkZAiBm3jw8DEl314hJxgnG
0yzQZ+4OQ+l24nEpB56dsTqmAg==
-----END CERTIFICATE-----
Certificate:
    Data:
        Version: 3 (0x2)
        Serial Number: 15791402689359379494 (0xdb2655145c69fc26)
    Signature Algorithm: ecdsa-with-SHA256
        Issuer: C=be, O=example, OU=org1, CN=org1.example.be
        Validity
            Not Before: Feb  2 07:19:15 2018 GMT
            Not After : Jan 31 07:19:15 2028 GMT
        Subject: C=be, O=example, OU=org1, CN=user-1.org1.example.be
        Subject Public Key Info:
            Public Key Algorithm: id-ecPublicKey
                Public-Key: (256 bit)
                pub: 
                    04:4e:ed:f2:84:e3:b3:82:db:f7:35:87:20:0d:a3:
                    0b:25:ba:79:08:c9:64:8d:cd:c2:d0:33:97:85:e3:
                    08:83:00:5c:9d:70:f4:19:df:57:97:5f:5f:b0:c2:
                    ad:28:10:9b:07:8c:9c:29:db:66:6f:71:12:30:70:
                    d4:41:46:8d:f4
                ASN1 OID: prime256v1
                NIST CURVE: P-256
        X509v3 extensions:
            1.2.3.4.5.6.7.8.1: 
                ..{"attrs":{}}
            X509v3 Authority Key Identifier: 
                keyid:C3:1E:07:C3:70:32:2C:06:EF:FB:4C:01:84:3E:46:6C:36:1B:00:58

            X509v3 Basic Constraints: critical
                CA:FALSE
            X509v3 Subject Key Identifier: 
                F5:DC:5D:48:2E:65:EB:98:75:D0:F1:E9:E7:16:B4:D5:DE:01:35:56
            X509v3 Key Usage: critical
                Digital Signature, Key Encipherment
            X509v3 Extended Key Usage: 
                TLS Web Server Authentication, TLS Web Client Authentication
    Signature Algorithm: ecdsa-with-SHA256
         30:44:02:20:77:21:ef:ba:b5:82:e2:78:b6:1f:9d:18:89:20:
         bb:d0:cb:a0:77:38:99:cd:53:40:81:6d:05:75:59:ea:9f:83:
         02:20:5a:c5:13:85:ff:08:de:b8:f5:35:a0:56:bb:66:c1:bf:
         b4:d9:6b:b6:15:3b:18:67:dc:c3:06:d7:59:22:62:fc
-----BEGIN CERTIFICATE-----
MIICKjCCAdGgAwIBAgIJANsmVRRcafwmMAoGCCqGSM49BAMCMEgxCzAJBgNVBAYT
AmJlMRAwDgYDVQQKDAdleGFtcGxlMQ0wCwYDVQQLDARvcmcxMRgwFgYDVQQDDA9v
cmcxLmV4YW1wbGUuYmUwHhcNMTgwMjAyMDcxOTE1WhcNMjgwMTMxMDcxOTE1WjBP
MQswCQYDVQQGEwJiZTEQMA4GA1UECgwHZXhhbXBsZTENMAsGA1UECwwEb3JnMTEf
MB0GA1UEAwwWdXNlci0xLm9yZzEuZXhhbXBsZS5iZTBZMBMGByqGSM49AgEGCCqG
SM49AwEHA0IABE7t8oTjs4Lb9zWHIA2jCyW6eQjJZI3NwtAzl4XjCIMAXJ1w9Bnf
V5dfX7DCrSgQmweMnCnbZm9xEjBw1EFGjfSjgZwwgZkwGgYIKgMEBQYHCAEEDgwM
eyJhdHRycyI6e319MB8GA1UdIwQYMBaAFMMeB8NwMiwG7/tMAYQ+Rmw2GwBYMAwG
A1UdEwEB/wQCMAAwHQYDVR0OBBYEFPXcXUguZeuYddDx6ecWtNXeATVWMA4GA1Ud
DwEB/wQEAwIFoDAdBgNVHSUEFjAUBggrBgEFBQcDAQYIKwYBBQUHAwIwCgYIKoZI
zj0EAwIDRwAwRAIgdyHvurWC4ni2H50YiSC70MugdziZzVNAgW0FdVnqn4MCIFrF
E4X/CN649TWgVrtmwb+02Wu2FTsYZ9zDBtdZImL8
-----END CERTIFICATE-----
