Certificate:
    Data:
        Version: 3 (0x2)
        Serial Number: 12095260413624553544 (0xa7daff4343ef9048)
    Signature Algorithm: ecdsa-with-SHA256
        Issuer: C=be, O=example, OU=org1, CN=org1.example.be
        Validity
            Not Before: Feb  2 07:19:16 2018 GMT
            Not After : Jan 31 07:19:16 2028 GMT
        Subject: C=be, O=example, OU=org1, CN=user-2.org1.example.be
        Subject Public Key Info:
            Public Key Algorithm: id-ecPublicKey
                Public-Key: (256 bit)
                pub: 
                    04:6c:84:04:46:23:3a:df:be:ca:e7:1d:8c:ab:b2:
                    69:d4:ab:44:f9:67:4e:9f:da:74:09:92:d4:5b:50:
                    11:56:90:34:e3:fa:4c:7f:40:b9:b0:1e:15:38:ad:
                    5b:44:6b:a5:89:de:e1:01:29:a0:16:af:b1:a5:09:
                    10:92:92:b8:ef
                ASN1 OID: prime256v1
                NIST CURVE: P-256
        X509v3 extensions:
            1.2.3.4.5.6.7.8.1: 
                ..{"attrs":{}}
            X509v3 Authority Key Identifier: 
                keyid:C3:1E:07:C3:70:32:2C:06:EF:FB:4C:01:84:3E:46:6C:36:1B:00:58

            X509v3 Basic Constraints: critical
                CA:FALSE
            X509v3 Subject Key Identifier: 
                81:87:76:C6:69:4E:A2:84:FD:B9:91:F5:14:DF:DA:AB:57:D1:CC:D8
            X509v3 Key Usage: critical
                Digital Signature, Key Encipherment
            X509v3 Extended Key Usage: 
                TLS Web Server Authentication, TLS Web Client Authentication
    Signature Algorithm: ecdsa-with-SHA256
         30:46:02:21:00:a0:42:ae:40:dc:cf:9b:b5:e6:ac:d9:9d:a0:
         d8:db:ce:3d:1b:e0:d3:38:62:db:cd:f3:43:66:3c:e0:55:50:
         02:02:21:00:ec:b0:7d:45:7e:f2:e0:a8:80:77:21:d5:17:7d:
         c3:ab:ff:20:4d:26:b7:55:dd:d4:4a:09:b6:d0:88:c4:31:04
-----BEGIN CERTIFICATE-----
MIICLDCCAdGgAwIBAgIJAKfa/0ND75BIMAoGCCqGSM49BAMCMEgxCzAJBgNVBAYT
AmJlMRAwDgYDVQQKDAdleGFtcGxlMQ0wCwYDVQQLDARvcmcxMRgwFgYDVQQDDA9v
cmcxLmV4YW1wbGUuYmUwHhcNMTgwMjAyMDcxOTE2WhcNMjgwMTMxMDcxOTE2WjBP
MQswCQYDVQQGEwJiZTEQMA4GA1UECgwHZXhhbXBsZTENMAsGA1UECwwEb3JnMTEf
MB0GA1UEAwwWdXNlci0yLm9yZzEuZXhhbXBsZS5iZTBZMBMGByqGSM49AgEGCCqG
SM49AwEHA0IABGyEBEYjOt++yucdjKuyadSrRPlnTp/adAmS1FtQEVaQNOP6TH9A
ubAeFTitW0RrpYne4QEpoBavsaUJEJKSuO+jgZwwgZkwGgYIKgMEBQYHCAEEDgwM
eyJhdHRycyI6e319MB8GA1UdIwQYMBaAFMMeB8NwMiwG7/tMAYQ+Rmw2GwBYMAwG
A1UdEwEB/wQCMAAwHQYDVR0OBBYEFIGHdsZpTqKE/bmR9RTf2qtX0czYMA4GA1Ud
DwEB/wQEAwIFoDAdBgNVHSUEFjAUBggrBgEFBQcDAQYIKwYBBQUHAwIwCgYIKoZI
zj0EAwIDSQAwRgIhAKBCrkDcz5u15qzZnaDY2849G+DTOGLbzfNDZjzgVVACAiEA
7LB9RX7y4KiAdyHVF33Dq/8gTSa3Vd3USgm20IjEMQQ=
-----END CERTIFICATE-----
