Certificate:
    Data:
        Version: 3 (0x2)
        Serial Number: 15969792197472372065 (0xdda019645b254561)
    Signature Algorithm: ecdsa-with-SHA256
        Issuer: C=be, O=example, OU=org1, CN=org1.example.be
        Validity
            Not Before: Feb  2 07:19:14 2018 GMT
            Not After : Jan 31 07:19:14 2028 GMT
        Subject: C=be, O=example, OU=org1, CN=admin.org1.example.be
        Subject Public Key Info:
            Public Key Algorithm: id-ecPublicKey
                Public-Key: (256 bit)
                pub: 
                    04:e2:41:c0:ee:40:72:c0:21:01:7a:3f:cf:92:3c:
                    bd:f6:12:ff:eb:72:67:09:36:2c:9b:55:21:14:13:
                    8d:b7:92:89:03:ac:86:65:6b:e6:b6:41:f9:51:8a:
                    3f:eb:15:7a:1c:35:00:ad:04:93:a4:aa:44:1d:71:
                    5b:c9:3f:1f:76
                ASN1 OID: prime256v1
                NIST CURVE: P-256
        X509v3 extensions:
            1.2.3.4.5.6.7.8.1: 
                ..{"attrs":{}}
            X509v3 Authority Key Identifier: 
                keyid:45:C0:17:29:44:2D:3C:C0:F0:18:03:0F:8D:95:51:D2:4A:C9:5C:ED

            X509v3 Basic Constraints: critical
                CA:FALSE
            X509v3 Subject Key Identifier: 
                E9:9A:1C:D7:B5:42:8B:F6:60:57:76:14:83:B0:C3:89:DC:1E:12:9E
            X509v3 Key Usage: critical
                Digital Signature
    Signature Algorithm: ecdsa-with-SHA256
         30:45:02:21:00:c8:64:f5:c6:2f:c1:4e:0e:dd:33:40:90:a3:
         d9:54:f1:04:73:bd:82:50:e3:3e:6e:f4:b3:30:0f:3c:61:8e:
         25:02:20:38:54:42:95:76:2a:65:27:84:0f:1e:0d:fd:2e:a8:
         be:b4:40:6a:0e:99:8a:ae:aa:d1:25:ad:3d:1f:da:7e:50
-----BEGIN CERTIFICATE-----
MIICCTCCAa+gAwIBAgIJAN2gGWRbJUVhMAoGCCqGSM49BAMCMEgxCzAJBgNVBAYT
AmJlMRAwDgYDVQQKDAdleGFtcGxlMQ0wCwYDVQQLDARvcmcxMRgwFgYDVQQDDA9v
cmcxLmV4YW1wbGUuYmUwHhcNMTgwMjAyMDcxOTE0WhcNMjgwMTMxMDcxOTE0WjBO
MQswCQYDVQQGEwJiZTEQMA4GA1UECgwHZXhhbXBsZTENMAsGA1UECwwEb3JnMTEe
MBwGA1UEAwwVYWRtaW4ub3JnMS5leGFtcGxlLmJlMFkwEwYHKoZIzj0CAQYIKoZI
zj0DAQcDQgAE4kHA7kBywCEBej/Pkjy99hL/63JnCTYsm1UhFBONt5KJA6yGZWvm
tkH5UYo/6xV6HDUArQSTpKpEHXFbyT8fdqN8MHowGgYIKgMEBQYHCAEEDgwMeyJh
dHRycyI6e319MB8GA1UdIwQYMBaAFEXAFylELTzA8BgDD42VUdJKyVztMAwGA1Ud
EwEB/wQCMAAwHQYDVR0OBBYEFOmaHNe1Qov2YFd2FIOww4ncHhKeMA4GA1UdDwEB
/wQEAwIHgDAKBggqhkjOPQQDAgNIADBFAiEAyGT1xi/BTg7dM0CQo9lU8QRzvYJQ
4z5u9LMwDzxhjiUCIDhUQpV2KmUnhA8eDf0uqL60QGoOmYquqtElrT0f2n5Q
-----END CERTIFICATE-----
