Certificate:
    Data:
        Version: 3 (0x2)
        Serial Number: 18223853923172150760 (0xfce82296c948ede8)
    Signature Algorithm: ecdsa-with-SHA256
        Issuer: CN=example.be, OU=ca, C=be, O=example
        Validity
            Not Before: Feb  2 07:19:13 2018 GMT
            Not After : Jan 28 07:19:13 2038 GMT
        Subject: CN=example.be, OU=ca, C=be, O=example
        Subject Public Key Info:
            Public Key Algorithm: id-ecPublicKey
                Public-Key: (256 bit)
                pub: 
                    04:7e:11:56:ba:28:99:2c:9e:76:7b:fd:92:95:e1:
                    3e:0a:d4:59:37:07:f8:75:91:dc:85:aa:9b:a6:67:
                    62:76:c2:99:35:5f:de:1a:ae:29:56:5d:ff:5e:36:
                    3d:ac:86:2d:66:53:62:9e:43:5b:f1:3d:b9:ff:60:
                    68:c3:65:57:67
                ASN1 OID: prime256v1
                NIST CURVE: P-256
        X509v3 extensions:
            X509v3 Subject Key Identifier: 
                E1:A1:EA:B4:94:89:1B:C8:EA:51:FD:9B:33:F6:D0:FD:0E:D9:0A:DA
            X509v3 Basic Constraints: critical
                CA:TRUE
            X509v3 Key Usage: critical
                Digital Signature, Key Encipherment, Certificate Sign, CRL Sign
            X509v3 Extended Key Usage: 
                Any Extended Key Usage
    Signature Algorithm: ecdsa-with-SHA256
         30:46:02:21:00:92:69:7f:4f:9e:ab:f1:04:c1:1d:b2:09:bb:
         b0:b7:09:c8:c8:7d:90:60:91:d8:5d:a3:47:d5:7e:a1:99:01:
         b1:02:21:00:84:83:ba:ee:02:aa:4e:31:5c:bb:10:53:c4:28:
         48:13:66:f4:f1:31:97:b0:64:f3:60:9b:59:34:6d:53:bb:a5
-----BEGIN CERTIFICATE-----
MIIBzTCCAXKgAwIBAgIJAPzoIpbJSO3oMAoGCCqGSM49BAMCMEExEzARBgNVBAMM
CmV4YW1wbGUuYmUxCzAJBgNVBAsMAmNhMQswCQYDVQQGEwJiZTEQMA4GA1UECgwH
ZXhhbXBsZTAeFw0xODAyMDIwNzE5MTNaFw0zODAxMjgwNzE5MTNaMEExEzARBgNV
BAMMCmV4YW1wbGUuYmUxCzAJBgNVBAsMAmNhMQswCQYDVQQGEwJiZTEQMA4GA1UE
CgwHZXhhbXBsZTBZMBMGByqGSM49AgEGCCqGSM49AwEHA0IABH4RVroomSyednv9
kpXhPgrUWTcH+HWR3IWqm6ZnYnbCmTVf3hquKVZd/142PayGLWZTYp5DW/E9uf9g
aMNlV2ejUzBRMB0GA1UdDgQWBBThoeq0lIkbyOpR/Zsz9tD9DtkK2jAPBgNVHRMB
Af8EBTADAQH/MA4GA1UdDwEB/wQEAwIBpjAPBgNVHSUECDAGBgRVHSUAMAoGCCqG
SM49BAMCA0kAMEYCIQCSaX9PnqvxBMEdsgm7sLcJyMh9kGCR2F2jR9V+oZkBsQIh
AISDuu4Cqk4xXLsQU8QoSBNm9PExl7Bk82CbWTRtU7ul
-----END CERTIFICATE-----
Certificate:
    Data:
        Version: 3 (0x2)
        Serial Number: 13074927343767871763 (0xb57379252d536113)
    Signature Algorithm: ecdsa-with-SHA256
        Issuer: CN=example.be, OU=ca, C=be, O=example
        Validity
            Not Before: Feb  2 07:19:13 2018 GMT
            Not After : Jan 31 07:19:13 2028 GMT
        Subject: C=be, O=example, OU=org1, CN=org1.example.be
        Subject Public Key Info:
            Public Key Algorithm: id-ecPublicKey
                Public-Key: (256 bit)
                pub: 
                    04:25:a1:2d:85:f2:cd:2d:a8:93:53:e9:1f:b8:04:
                    33:37:af:e2:66:36:12:1d:0f:2c:0e:bd:ac:56:14:
                    92:19:bc:e0:d8:e8:66:96:28:b6:e7:3e:c3:67:e3:
                    94:2d:27:74:3e:08:b2:f3:90:82:be:6b:2a:7c:00:
                    8f:f2:16:98:57
                ASN1 OID: prime256v1
                NIST CURVE: P-256
        X509v3 extensions:
            1.2.3.4.5.6.7.8.1: 
                ..{"attrs":{}}
            X509v3 Authority Key Identifier: 
                keyid:E1:A1:EA:B4:94:89:1B:C8:EA:51:FD:9B:33:F6:D0:FD:0E:D9:0A:DA

            X509v3 Basic Constraints: critical
                CA:TRUE
            X509v3 Subject Key Identifier: 
                C3:1E:07:C3:70:32:2C:06:EF:FB:4C:01:84:3E:46:6C:36:1B:00:58
            X509v3 Key Usage: critical
                Digital Signature, Key Encipherment, Certificate Sign, CRL Sign
            X509v3 Extended Key Usage: 
                TLS Web Server Authentication, TLS Web Client Authentication
    Signature Algorithm: ecdsa-with-SHA256
         30:44:02:20:65:54:02:6e:d5:53:ee:2c:cf:61:29:f5:61:f5:
         2b:25:f3:9d:be:6d:04:c0:4a:b6:f5:3f:5a:19:79:9a:39:19:
         02:20:66:de:3c:3c:0c:49:77:d7:88:49:c6:09:c6:d3:2c:d0:
         67:ee:0e:43:e9:76:e2:71:29:07:9e:9d:b1:3a:a6:02
-----BEGIN CERTIFICATE-----
MIICHzCCAcagAwIBAgIJALVzeSUtU2ETMAoGCCqGSM49BAMCMEExEzARBgNVBAMM
CmV4YW1wbGUuYmUxCzAJBgNVBAsMAmNhMQswCQYDVQQGEwJiZTEQMA4GA1UECgwH
ZXhhbXBsZTAeFw0xODAyMDIwNzE5MTNaFw0yODAxMzEwNzE5MTNaMEgxCzAJBgNV
BAYTAmJlMRAwDgYDVQQKDAdleGFtcGxlMQ0wCwYDVQQLDARvcmcxMRgwFgYDVQQD
DA9vcmcxLmV4YW1wbGUuYmUwWTATBgcqhkjOPQIBBggqhkjOPQMBBwNCAAQloS2F
8s0tqJNT6R+4BDM3r+JmNhIdDywOvaxWFJIZvODY6GaWKLbnPsNn45QtJ3Q+CLLz
kIK+ayp8AI/yFphXo4GfMIGcMBoGCCoDBAUGBwgBBA4MDHsiYXR0cnMiOnt9fTAf
BgNVHSMEGDAWgBThoeq0lIkbyOpR/Zsz9tD9DtkK2jAPBgNVHRMBAf8EBTADAQH/
MB0GA1UdDgQWBBTDHgfDcDIsBu/7TAGEPkZsNhsAWDAOBgNVHQ8BAf8EBAMCAaYw
HQYDVR0lBBYwFAYIKwYBBQUHAwEGCCsGAQUFBwMCMAoGCCqGSM49BAMCA0cAMEQC
IGVUAm7VU+4sz2Ep9WH1KyXznb5tBMBKtvU/Whl5mjkZAiBm3jw8DEl314hJxgnG
0yzQZ+4OQ+l24nEpB56dsTqmAg==
-----END CERTIFICATE-----
Certificate:
    Data:
        Version: 3 (0x2)
        Serial Number: 9251032839062294658 (0x8062455a61c81082)
    Signature Algorithm: ecdsa-with-SHA256
        Issuer: C=be, O=example, OU=org1, CN=org1.example.be
        Validity
            Not Before: Feb  2 07:19:14 2018 GMT
            Not After : Jan 31 07:19:14 2028 GMT
        Subject: C=be, O=example, OU=org1, CN=admin.org1.example.be
        Subject Public Key Info:
            Public Key Algorithm: id-ecPublicKey
                Public-Key: (256 bit)
                pub: 
                    04:40:7d:92:d7:cd:8a:bb:64:6e:0b:13:d7:b1:c8:
                    ae:9b:eb:dd:b3:77:72:94:7f:bd:93:4b:30:df:f7:
                    39:00:59:60:f5:71:54:91:be:81:6c:23:91:70:64:
                    08:76:f1:6f:4c:57:69:24:a6:d9:21:d0:fa:31:e0:
                    9b:e3:2a:9b:b4
                ASN1 OID: prime256v1
                NIST CURVE: P-256
        X509v3 extensions:
            1.2.3.4.5.6.7.8.1: 
                ..{"attrs":{}}
            X509v3 Authority Key Identifier: 
                keyid:C3:1E:07:C3:70:32:2C:06:EF:FB:4C:01:84:3E:46:6C:36:1B:00:58

            X509v3 Basic Constraints: critical
                CA:FALSE
            X509v3 Subject Key Identifier: 
                53:FC:C7:BB:94:AA:BE:D4:FF:FD:18:D3:A8:F9:82:79:1B:F8:6F:25
            X509v3 Key Usage: critical
                Digital Signature, Key Encipherment
            X509v3 Extended Key Usage: 
                TLS Web Server Authentication, TLS Web Client Authentication
    Signature Algorithm: ecdsa-with-SHA256
         30:46:02:21:00:8f:b4:b3:f7:b7:75:88:73:4e:a8:ee:f9:5d:
         5c:08:de:f4:93:f2:4d:16:39:20:7e:a9:19:a1:e7:2f:63:86:
         08:02:21:00:e6:bc:bc:3c:3f:e3:1c:34:92:7b:52:01:bc:3c:
         e8:cf:6a:c9:a1:50:bd:f6:79:f6:06:08:39:c0:13:cb:88:29
-----BEGIN CERTIFICATE-----
MIICKzCCAdCgAwIBAgIJAIBiRVphyBCCMAoGCCqGSM49BAMCMEgxCzAJBgNVBAYT
AmJlMRAwDgYDVQQKDAdleGFtcGxlMQ0wCwYDVQQLDARvcmcxMRgwFgYDVQQDDA9v
cmcxLmV4YW1wbGUuYmUwHhcNMTgwMjAyMDcxOTE0WhcNMjgwMTMxMDcxOTE0WjBO
MQswCQYDVQQGEwJiZTEQMA4GA1UECgwHZXhhbXBsZTENMAsGA1UECwwEb3JnMTEe
MBwGA1UEAwwVYWRtaW4ub3JnMS5leGFtcGxlLmJlMFkwEwYHKoZIzj0CAQYIKoZI
zj0DAQcDQgAEQH2S182Ku2RuCxPXscium+vds3dylH+9k0sw3/c5AFlg9XFUkb6B
bCORcGQIdvFvTFdpJKbZIdD6MeCb4yqbtKOBnDCBmTAaBggqAwQFBgcIAQQODAx7
ImF0dHJzIjp7fX0wHwYDVR0jBBgwFoAUwx4Hw3AyLAbv+0wBhD5GbDYbAFgwDAYD
VR0TAQH/BAIwADAdBgNVHQ4EFgQUU/zHu5SqvtT//RjTqPmCeRv4byUwDgYDVR0P
AQH/BAQDAgWgMB0GA1UdJQQWMBQGCCsGAQUFBwMBBggrBgEFBQcDAjAKBggqhkjO
PQQDAgNJADBGAiEAj7Sz97d1iHNOqO75XVwI3vST8k0WOSB+qRmh5y9jhggCIQDm
vLw8P+McNJJ7UgG8POjPasmhUL32efYGCDnAE8uIKQ==
-----END CERTIFICATE-----
