Certificate:
    Data:
        Version: 3 (0x2)
        Serial Number: 14867812469274241000 (0xce5514aaf236e7e8)
    Signature Algorithm: ecdsa-with-SHA256
        Issuer: CN=example.be, OU=ca, C=be, O=example
        Validity
            Not Before: Feb  2 07:19:13 2018 GMT
            Not After : Jan 31 07:19:13 2028 GMT
        Subject: C=be, O=example, OU=org1, CN=org1.example.be
        Subject Public Key Info:
            Public Key Algorithm: id-ecPublicKey
                Public-Key: (256 bit)
                pub: 
                    04:e0:41:67:64:9e:ea:b5:13:2d:08:c1:7f:f1:f1:
                    b9:e5:20:4d:a8:07:cc:33:59:71:53:c7:1a:bc:93:
                    fd:b3:d4:56:20:75:c8:75:77:36:c4:bf:25:e4:85:
                    0f:eb:9e:fb:3d:df:a5:b0:4e:99:1d:4e:da:e0:36:
                    62:3f:4f:fd:05
                ASN1 OID: prime256v1
                NIST CURVE: P-256
        X509v3 extensions:
            1.2.3.4.5.6.7.8.1: 
                ..{"attrs":{}}
            X509v3 Authority Key Identifier: 
                keyid:E1:A1:EA:B4:94:89:1B:C8:EA:51:FD:9B:33:F6:D0:FD:0E:D9:0A:DA

            X509v3 Basic Constraints: critical
                CA:TRUE
            X509v3 Subject Key Identifier: 
                45:C0:17:29:44:2D:3C:C0:F0:18:03:0F:8D:95:51:D2:4A:C9:5C:ED
            X509v3 Extended Key Usage: 
                Any Extended Key Usage
            X509v3 Key Usage: critical
                Digital Signature, Key Encipherment, Certificate Sign, CRL Sign
    Signature Algorithm: ecdsa-with-SHA256
         30:45:02:21:00:a8:72:14:00:1d:6e:4e:fc:06:80:e7:c2:51:
         79:93:56:d3:5c:fb:54:c7:81:e5:91:13:c6:ae:12:47:a9:b8:
         d4:02:20:2b:3f:5a:5b:a5:5a:61:bc:41:1f:58:72:90:fc:03:
         10:b8:1e:8d:f9:65:bf:52:72:46:be:8b:bc:04:3d:bc:7e
-----BEGIN CERTIFICATE-----
MIICEjCCAbigAwIBAgIJAM5VFKryNufoMAoGCCqGSM49BAMCMEExEzARBgNVBAMM
CmV4YW1wbGUuYmUxCzAJBgNVBAsMAmNhMQswCQYDVQQGEwJiZTEQMA4GA1UECgwH
ZXhhbXBsZTAeFw0xODAyMDIwNzE5MTNaFw0yODAxMzEwNzE5MTNaMEgxCzAJBgNV
BAYTAmJlMRAwDgYDVQQKDAdleGFtcGxlMQ0wCwYDVQQLDARvcmcxMRgwFgYDVQQD
DA9vcmcxLmV4YW1wbGUuYmUwWTATBgcqhkjOPQIBBggqhkjOPQMBBwNCAATgQWdk
nuq1Ey0IwX/x8bnlIE2oB8wzWXFTxxq8k/2z1FYgdch1dzbEvyXkhQ/rnvs936Ww
TpkdTtrgNmI/T/0Fo4GRMIGOMBoGCCoDBAUGBwgBBA4MDHsiYXR0cnMiOnt9fTAf
BgNVHSMEGDAWgBThoeq0lIkbyOpR/Zsz9tD9DtkK2jAPBgNVHRMBAf8EBTADAQH/
MB0GA1UdDgQWBBRFwBcpRC08wPAYAw+NlVHSSslc7TAPBgNVHSUECDAGBgRVHSUA
MA4GA1UdDwEB/wQEAwIBpjAKBggqhkjOPQQDAgNIADBFAiEAqHIUAB1uTvwGgOfC
UXmTVtNc+1THgeWRE8auEkepuNQCICs/WlulWmG8QR9YcpD8AxC4Ho35Zb9Scka+
i7wEPbx+
-----END CERTIFICATE-----
