Certificate:
    Data:
        Version: 3 (0x2)
        Serial Number: 13074927343767871763 (0xb57379252d536113)
    Signature Algorithm: ecdsa-with-SHA256
        Issuer: CN=example.be, OU=ca, C=be, O=example
        Validity
            Not Before: Feb  2 07:19:13 2018 GMT
            Not After : Jan 31 07:19:13 2028 GMT
        Subject: C=be, O=example, OU=org1, CN=org1.example.be
        Subject Public Key Info:
            Public Key Algorithm: id-ecPublicKey
                Public-Key: (256 bit)
                pub: 
                    04:25:a1:2d:85:f2:cd:2d:a8:93:53:e9:1f:b8:04:
                    33:37:af:e2:66:36:12:1d:0f:2c:0e:bd:ac:56:14:
                    92:19:bc:e0:d8:e8:66:96:28:b6:e7:3e:c3:67:e3:
                    94:2d:27:74:3e:08:b2:f3:90:82:be:6b:2a:7c:00:
                    8f:f2:16:98:57
                ASN1 OID: prime256v1
                NIST CURVE: P-256
        X509v3 extensions:
            1.2.3.4.5.6.7.8.1: 
                ..{"attrs":{}}
            X509v3 Authority Key Identifier: 
                keyid:E1:A1:EA:B4:94:89:1B:C8:EA:51:FD:9B:33:F6:D0:FD:0E:D9:0A:DA

            X509v3 Basic Constraints: critical
                CA:TRUE
            X509v3 Subject Key Identifier: 
                C3:1E:07:C3:70:32:2C:06:EF:FB:4C:01:84:3E:46:6C:36:1B:00:58
            X509v3 Key Usage: critical
                Digital Signature, Key Encipherment, Certificate Sign, CRL Sign
            X509v3 Extended Key Usage: 
                TLS Web Server Authentication, TLS Web Client Authentication
    Signature Algorithm: ecdsa-with-SHA256
         30:44:02:20:65:54:02:6e:d5:53:ee:2c:cf:61:29:f5:61:f5:
         2b:25:f3:9d:be:6d:04:c0:4a:b6:f5:3f:5a:19:79:9a:39:19:
         02:20:66:de:3c:3c:0c:49:77:d7:88:49:c6:09:c6:d3:2c:d0:
         67:ee:0e:43:e9:76:e2:71:29:07:9e:9d:b1:3a:a6:02
-----BEGIN CERTIFICATE-----
MIICHzCCAcagAwIBAgIJALVzeSUtU2ETMAoGCCqGSM49BAMCMEExEzARBgNVBAMM
CmV4YW1wbGUuYmUxCzAJBgNVBAsMAmNhMQswCQYDVQQGEwJiZTEQMA4GA1UECgwH
ZXhhbXBsZTAeFw0xODAyMDIwNzE5MTNaFw0yODAxMzEwNzE5MTNaMEgxCzAJBgNV
BAYTAmJlMRAwDgYDVQQKDAdleGFtcGxlMQ0wCwYDVQQLDARvcmcxMRgwFgYDVQQD
DA9vcmcxLmV4YW1wbGUuYmUwWTATBgcqhkjOPQIBBggqhkjOPQMBBwNCAAQloS2F
8s0tqJNT6R+4BDM3r+JmNhIdDywOvaxWFJIZvODY6GaWKLbnPsNn45QtJ3Q+CLLz
kIK+ayp8AI/yFphXo4GfMIGcMBoGCCoDBAUGBwgBBA4MDHsiYXR0cnMiOnt9fTAf
BgNVHSMEGDAWgBThoeq0lIkbyOpR/Zsz9tD9DtkK2jAPBgNVHRMBAf8EBTADAQH/
MB0GA1UdDgQWBBTDHgfDcDIsBu/7TAGEPkZsNhsAWDAOBgNVHQ8BAf8EBAMCAaYw
HQYDVR0lBBYwFAYIKwYBBQUHAwEGCCsGAQUFBwMCMAoGCCqGSM49BAMCA0cAMEQC
IGVUAm7VU+4sz2Ep9WH1KyXznb5tBMBKtvU/Whl5mjkZAiBm3jw8DEl314hJxgnG
0yzQZ+4OQ+l24nEpB56dsTqmAg==
-----END CERTIFICATE-----
