Certificate:
    Data:
        Version: 3 (0x2)
        Serial Number: 15791402689359379494 (0xdb2655145c69fc26)
    Signature Algorithm: ecdsa-with-SHA256
        Issuer: C=be, O=example, OU=org1, CN=org1.example.be
        Validity
            Not Before: Feb  2 07:19:15 2018 GMT
            Not After : Jan 31 07:19:15 2028 GMT
        Subject: C=be, O=example, OU=org1, CN=user-1.org1.example.be
        Subject Public Key Info:
            Public Key Algorithm: id-ecPublicKey
                Public-Key: (256 bit)
                pub: 
                    04:4e:ed:f2:84:e3:b3:82:db:f7:35:87:20:0d:a3:
                    0b:25:ba:79:08:c9:64:8d:cd:c2:d0:33:97:85:e3:
                    08:83:00:5c:9d:70:f4:19:df:57:97:5f:5f:b0:c2:
                    ad:28:10:9b:07:8c:9c:29:db:66:6f:71:12:30:70:
                    d4:41:46:8d:f4
                ASN1 OID: prime256v1
                NIST CURVE: P-256
        X509v3 extensions:
            1.2.3.4.5.6.7.8.1: 
                ..{"attrs":{}}
            X509v3 Authority Key Identifier: 
                keyid:C3:1E:07:C3:70:32:2C:06:EF:FB:4C:01:84:3E:46:6C:36:1B:00:58

            X509v3 Basic Constraints: critical
                CA:FALSE
            X509v3 Subject Key Identifier: 
                F5:DC:5D:48:2E:65:EB:98:75:D0:F1:E9:E7:16:B4:D5:DE:01:35:56
            X509v3 Key Usage: critical
                Digital Signature, Key Encipherment
            X509v3 Extended Key Usage: 
                TLS Web Server Authentication, TLS Web Client Authentication
    Signature Algorithm: ecdsa-with-SHA256
         30:44:02:20:77:21:ef:ba:b5:82:e2:78:b6:1f:9d:18:89:20:
         bb:d0:cb:a0:77:38:99:cd:53:40:81:6d:05:75:59:ea:9f:83:
         02:20:5a:c5:13:85:ff:08:de:b8:f5:35:a0:56:bb:66:c1:bf:
         b4:d9:6b:b6:15:3b:18:67:dc:c3:06:d7:59:22:62:fc
-----BEGIN CERTIFICATE-----
MIICKjCCAdGgAwIBAgIJANsmVRRcafwmMAoGCCqGSM49BAMCMEgxCzAJBgNVBAYT
AmJlMRAwDgYDVQQKDAdleGFtcGxlMQ0wCwYDVQQLDARvcmcxMRgwFgYDVQQDDA9v
cmcxLmV4YW1wbGUuYmUwHhcNMTgwMjAyMDcxOTE1WhcNMjgwMTMxMDcxOTE1WjBP
MQswCQYDVQQGEwJiZTEQMA4GA1UECgwHZXhhbXBsZTENMAsGA1UECwwEb3JnMTEf
MB0GA1UEAwwWdXNlci0xLm9yZzEuZXhhbXBsZS5iZTBZMBMGByqGSM49AgEGCCqG
SM49AwEHA0IABE7t8oTjs4Lb9zWHIA2jCyW6eQjJZI3NwtAzl4XjCIMAXJ1w9Bnf
V5dfX7DCrSgQmweMnCnbZm9xEjBw1EFGjfSjgZwwgZkwGgYIKgMEBQYHCAEEDgwM
eyJhdHRycyI6e319MB8GA1UdIwQYMBaAFMMeB8NwMiwG7/tMAYQ+Rmw2GwBYMAwG
A1UdEwEB/wQCMAAwHQYDVR0OBBYEFPXcXUguZeuYddDx6ecWtNXeATVWMA4GA1Ud
DwEB/wQEAwIFoDAdBgNVHSUEFjAUBggrBgEFBQcDAQYIKwYBBQUHAwIwCgYIKoZI
zj0EAwIDRwAwRAIgdyHvurWC4ni2H50YiSC70MugdziZzVNAgW0FdVnqn4MCIFrF
E4X/CN649TWgVrtmwb+02Wu2FTsYZ9zDBtdZImL8
-----END CERTIFICATE-----
