Certificate:
    Data:
        Version: 3 (0x2)
        Serial Number: 18223853923172150760 (0xfce82296c948ede8)
    Signature Algorithm: ecdsa-with-SHA256
        Issuer: CN=example.be, OU=ca, C=be, O=example
        Validity
            Not Before: Feb  2 07:19:13 2018 GMT
            Not After : Jan 28 07:19:13 2038 GMT
        Subject: CN=example.be, OU=ca, C=be, O=example
        Subject Public Key Info:
            Public Key Algorithm: id-ecPublicKey
                Public-Key: (256 bit)
                pub: 
                    04:7e:11:56:ba:28:99:2c:9e:76:7b:fd:92:95:e1:
                    3e:0a:d4:59:37:07:f8:75:91:dc:85:aa:9b:a6:67:
                    62:76:c2:99:35:5f:de:1a:ae:29:56:5d:ff:5e:36:
                    3d:ac:86:2d:66:53:62:9e:43:5b:f1:3d:b9:ff:60:
                    68:c3:65:57:67
                ASN1 OID: prime256v1
                NIST CURVE: P-256
        X509v3 extensions:
            X509v3 Subject Key Identifier: 
                E1:A1:EA:B4:94:89:1B:C8:EA:51:FD:9B:33:F6:D0:FD:0E:D9:0A:DA
            X509v3 Basic Constraints: critical
                CA:TRUE
            X509v3 Key Usage: critical
                Digital Signature, Key Encipherment, Certificate Sign, CRL Sign
            X509v3 Extended Key Usage: 
                Any Extended Key Usage
    Signature Algorithm: ecdsa-with-SHA256
         30:46:02:21:00:92:69:7f:4f:9e:ab:f1:04:c1:1d:b2:09:bb:
         b0:b7:09:c8:c8:7d:90:60:91:d8:5d:a3:47:d5:7e:a1:99:01:
         b1:02:21:00:84:83:ba:ee:02:aa:4e:31:5c:bb:10:53:c4:28:
         48:13:66:f4:f1:31:97:b0:64:f3:60:9b:59:34:6d:53:bb:a5
-----BEGIN CERTIFICATE-----
MIIBzTCCAXKgAwIBAgIJAPzoIpbJSO3oMAoGCCqGSM49BAMCMEExEzARBgNVBAMM
CmV4YW1wbGUuYmUxCzAJBgNVBAsMAmNhMQswCQYDVQQGEwJiZTEQMA4GA1UECgwH
ZXhhbXBsZTAeFw0xODAyMDIwNzE5MTNaFw0zODAxMjgwNzE5MTNaMEExEzARBgNV
BAMMCmV4YW1wbGUuYmUxCzAJBgNVBAsMAmNhMQswCQYDVQQGEwJiZTEQMA4GA1UE
CgwHZXhhbXBsZTBZMBMGByqGSM49AgEGCCqGSM49AwEHA0IABH4RVroomSyednv9
kpXhPgrUWTcH+HWR3IWqm6ZnYnbCmTVf3hquKVZd/142PayGLWZTYp5DW/E9uf9g
aMNlV2ejUzBRMB0GA1UdDgQWBBThoeq0lIkbyOpR/Zsz9tD9DtkK2jAPBgNVHRMB
Af8EBTADAQH/MA4GA1UdDwEB/wQEAwIBpjAPBgNVHSUECDAGBgRVHSUAMAoGCCqG
SM49BAMCA0kAMEYCIQCSaX9PnqvxBMEdsgm7sLcJyMh9kGCR2F2jR9V+oZkBsQIh
AISDuu4Cqk4xXLsQU8QoSBNm9PExl7Bk82CbWTRtU7ul
-----END CERTIFICATE-----
