Certificate:
    Data:
        Version: 3 (0x2)
        Serial Number: 18223853923172150760 (0xfce82296c948ede8)
    Signature Algorithm: ecdsa-with-SHA256
        Issuer: CN=example.be, OU=ca, C=be, O=example
        Validity
            Not Before: Feb  2 07:19:13 2018 GMT
            Not After : Jan 28 07:19:13 2038 GMT
        Subject: CN=example.be, OU=ca, C=be, O=example
        Subject Public Key Info:
            Public Key Algorithm: id-ecPublicKey
                Public-Key: (256 bit)
                pub: 
                    04:7e:11:56:ba:28:99:2c:9e:76:7b:fd:92:95:e1:
                    3e:0a:d4:59:37:07:f8:75:91:dc:85:aa:9b:a6:67:
                    62:76:c2:99:35:5f:de:1a:ae:29:56:5d:ff:5e:36:
                    3d:ac:86:2d:66:53:62:9e:43:5b:f1:3d:b9:ff:60:
                    68:c3:65:57:67
                ASN1 OID: prime256v1
                NIST CURVE: P-256
        X509v3 extensions:
            X509v3 Subject Key Identifier: 
                E1:A1:EA:B4:94:89:1B:C8:EA:51:FD:9B:33:F6:D0:FD:0E:D9:0A:DA
            X509v3 Basic Constraints: critical
                CA:TRUE
            X509v3 Key Usage: critical
                Digital Signature, Key Encipherment, Certificate Sign, CRL Sign
            X509v3 Extended Key Usage: 
                Any Extended Key Usage
    Signature Algorithm: ecdsa-with-SHA256
         30:46:02:21:00:92:69:7f:4f:9e:ab:f1:04:c1:1d:b2:09:bb:
         b0:b7:09:c8:c8:7d:90:60:91:d8:5d:a3:47:d5:7e:a1:99:01:
         b1:02:21:00:84:83:ba:ee:02:aa:4e:31:5c:bb:10:53:c4:28:
         48:13:66:f4:f1:31:97:b0:64:f3:60:9b:59:34:6d:53:bb:a5
-----BEGIN CERTIFICATE-----
MIIBzTCCAXKgAwIBAgIJAPzoIpbJSO3oMAoGCCqGSM49BAMCMEExEzARBgNVBAMM
CmV4YW1wbGUuYmUxCzAJBgNVBAsMAmNhMQswCQYDVQQGEwJiZTEQMA4GA1UECgwH
ZXhhbXBsZTAeFw0xODAyMDIwNzE5MTNaFw0zODAxMjgwNzE5MTNaMEExEzARBgNV
BAMMCmV4YW1wbGUuYmUxCzAJBgNVBAsMAmNhMQswCQYDVQQGEwJiZTEQMA4GA1UE
CgwHZXhhbXBsZTBZMBMGByqGSM49AgEGCCqGSM49AwEHA0IABH4RVroomSyednv9
kpXhPgrUWTcH+HWR3IWqm6ZnYnbCmTVf3hquKVZd/142PayGLWZTYp5DW/E9uf9g
aMNlV2ejUzBRMB0GA1UdDgQWBBThoeq0lIkbyOpR/Zsz9tD9DtkK2jAPBgNVHRMB
Af8EBTADAQH/MA4GA1UdDwEB/wQEAwIBpjAPBgNVHSUECDAGBgRVHSUAMAoGCCqG
SM49BAMCA0kAMEYCIQCSaX9PnqvxBMEdsgm7sLcJyMh9kGCR2F2jR9V+oZkBsQIh
AISDuu4Cqk4xXLsQU8QoSBNm9PExl7Bk82CbWTRtU7ul
-----END CERTIFICATE-----
Certificate:
    Data:
        Version: 3 (0x2)
        Serial Number: 14867812469274241000 (0xce5514aaf236e7e8)
    Signature Algorithm: ecdsa-with-SHA256
        Issuer: CN=example.be, OU=ca, C=be, O=example
        Validity
            Not Before: Feb  2 07:19:13 2018 GMT
            Not After : Jan 31 07:19:13 2028 GMT
        Subject: C=be, O=example, OU=org1, CN=org1.example.be
        Subject Public Key Info:
            Public Key Algorithm: id-ecPublicKey
                Public-Key: (256 bit)
                pub: 
                    04:e0:41:67:64:9e:ea:b5:13:2d:08:c1:7f:f1:f1:
                    b9:e5:20:4d:a8:07:cc:33:59:71:53:c7:1a:bc:93:
                    fd:b3:d4:56:20:75:c8:75:77:36:c4:bf:25:e4:85:
                    0f:eb:9e:fb:3d:df:a5:b0:4e:99:1d:4e:da:e0:36:
                    62:3f:4f:fd:05
                ASN1 OID: prime256v1
                NIST CURVE: P-256
        X509v3 extensions:
            1.2.3.4.5.6.7.8.1: 
                ..{"attrs":{}}
            X509v3 Authority Key Identifier: 
                keyid:E1:A1:EA:B4:94:89:1B:C8:EA:51:FD:9B:33:F6:D0:FD:0E:D9:0A:DA

            X509v3 Basic Constraints: critical
                CA:TRUE
            X509v3 Subject Key Identifier: 
                45:C0:17:29:44:2D:3C:C0:F0:18:03:0F:8D:95:51:D2:4A:C9:5C:ED
            X509v3 Extended Key Usage: 
                Any Extended Key Usage
            X509v3 Key Usage: critical
                Digital Signature, Key Encipherment, Certificate Sign, CRL Sign
    Signature Algorithm: ecdsa-with-SHA256
         30:45:02:21:00:a8:72:14:00:1d:6e:4e:fc:06:80:e7:c2:51:
         79:93:56:d3:5c:fb:54:c7:81:e5:91:13:c6:ae:12:47:a9:b8:
         d4:02:20:2b:3f:5a:5b:a5:5a:61:bc:41:1f:58:72:90:fc:03:
         10:b8:1e:8d:f9:65:bf:52:72:46:be:8b:bc:04:3d:bc:7e
-----BEGIN CERTIFICATE-----
MIICEjCCAbigAwIBAgIJAM5VFKryNufoMAoGCCqGSM49BAMCMEExEzARBgNVBAMM
CmV4YW1wbGUuYmUxCzAJBgNVBAsMAmNhMQswCQYDVQQGEwJiZTEQMA4GA1UECgwH
ZXhhbXBsZTAeFw0xODAyMDIwNzE5MTNaFw0yODAxMzEwNzE5MTNaMEgxCzAJBgNV
BAYTAmJlMRAwDgYDVQQKDAdleGFtcGxlMQ0wCwYDVQQLDARvcmcxMRgwFgYDVQQD
DA9vcmcxLmV4YW1wbGUuYmUwWTATBgcqhkjOPQIBBggqhkjOPQMBBwNCAATgQWdk
nuq1Ey0IwX/x8bnlIE2oB8wzWXFTxxq8k/2z1FYgdch1dzbEvyXkhQ/rnvs936Ww
TpkdTtrgNmI/T/0Fo4GRMIGOMBoGCCoDBAUGBwgBBA4MDHsiYXR0cnMiOnt9fTAf
BgNVHSMEGDAWgBThoeq0lIkbyOpR/Zsz9tD9DtkK2jAPBgNVHRMBAf8EBTADAQH/
MB0GA1UdDgQWBBRFwBcpRC08wPAYAw+NlVHSSslc7TAPBgNVHSUECDAGBgRVHSUA
MA4GA1UdDwEB/wQEAwIBpjAKBggqhkjOPQQDAgNIADBFAiEAqHIUAB1uTvwGgOfC
UXmTVtNc+1THgeWRE8auEkepuNQCICs/WlulWmG8QR9YcpD8AxC4Ho35Zb9Scka+
i7wEPbx+
-----END CERTIFICATE-----
Certificate:
    Data:
        Version: 3 (0x2)
        Serial Number: 10809358749184693049 (0x96028e830eea1339)
    Signature Algorithm: ecdsa-with-SHA256
        Issuer: C=be, O=example, OU=org1, CN=org1.example.be
        Validity
            Not Before: Feb  2 07:19:16 2018 GMT
            Not After : Jan 31 07:19:16 2028 GMT
        Subject: C=be, O=example, OU=org1, CN=user-2.org1.example.be
        Subject Public Key Info:
            Public Key Algorithm: id-ecPublicKey
                Public-Key: (256 bit)
                pub: 
                    04:bb:34:9f:bb:45:d2:2b:2f:25:64:3a:c4:f8:a6:
                    ac:93:51:86:ee:89:90:a0:a2:4a:c1:c2:08:c5:81:
                    6a:cc:ab:0b:84:85:b7:c9:59:a8:f9:26:65:f7:40:
                    3e:2f:3f:d5:e0:99:17:d6:77:25:43:54:4f:28:aa:
                    a2:88:b0:6e:36
                ASN1 OID: prime256v1
                NIST CURVE: P-256
        X509v3 extensions:
            1.2.3.4.5.6.7.8.1: 
                ..{"attrs":{}}
            X509v3 Authority Key Identifier: 
                keyid:45:C0:17:29:44:2D:3C:C0:F0:18:03:0F:8D:95:51:D2:4A:C9:5C:ED

            X509v3 Basic Constraints: critical
                CA:FALSE
            X509v3 Subject Key Identifier: 
                0B:6A:2E:83:05:4C:A4:80:D2:DD:F2:9B:39:7F:FB:2E:4A:97:5F:33
            X509v3 Key Usage: critical
                Digital Signature
    Signature Algorithm: ecdsa-with-SHA256
         30:45:02:21:00:c0:0e:38:c9:a9:54:63:c3:2b:b6:90:71:07:
         be:aa:e9:df:4b:e2:77:f8:2b:d7:15:9c:86:3f:bb:96:28:29:
         23:02:20:0f:3c:9a:fe:80:46:d4:1f:48:a0:38:61:98:54:d4:
         27:f5:7f:63:be:9c:6f:49:56:94:34:6f:f3:c5:3c:b3:26
-----BEGIN CERTIFICATE-----
MIICCjCCAbCgAwIBAgIJAJYCjoMO6hM5MAoGCCqGSM49BAMCMEgxCzAJBgNVBAYT
AmJlMRAwDgYDVQQKDAdleGFtcGxlMQ0wCwYDVQQLDARvcmcxMRgwFgYDVQQDDA9v
cmcxLmV4YW1wbGUuYmUwHhcNMTgwMjAyMDcxOTE2WhcNMjgwMTMxMDcxOTE2WjBP
MQswCQYDVQQGEwJiZTEQMA4GA1UECgwHZXhhbXBsZTENMAsGA1UECwwEb3JnMTEf
MB0GA1UEAwwWdXNlci0yLm9yZzEuZXhhbXBsZS5iZTBZMBMGByqGSM49AgEGCCqG
SM49AwEHA0IABLs0n7tF0isvJWQ6xPimrJNRhu6JkKCiSsHCCMWBasyrC4SFt8lZ
qPkmZfdAPi8/1eCZF9Z3JUNUTyiqooiwbjajfDB6MBoGCCoDBAUGBwgBBA4MDHsi
YXR0cnMiOnt9fTAfBgNVHSMEGDAWgBRFwBcpRC08wPAYAw+NlVHSSslc7TAMBgNV
HRMBAf8EAjAAMB0GA1UdDgQWBBQLai6DBUykgNLd8ps5f/suSpdfMzAOBgNVHQ8B
Af8EBAMCB4AwCgYIKoZIzj0EAwIDSAAwRQIhAMAOOMmpVGPDK7aQcQe+qunfS+J3
+CvXFZyGP7uWKCkjAiAPPJr+gEbUH0igOGGYVNQn9X9jvpxvSVaUNG/zxTyzJg==
-----END CERTIFICATE-----
