Certificate:
    Data:
        Version: 3 (0x2)
        Serial Number: 18223853923172150760 (0xfce82296c948ede8)
    Signature Algorithm: ecdsa-with-SHA256
        Issuer: CN=example.be, OU=ca, C=be, O=example
        Validity
            Not Before: Feb  2 07:19:13 2018 GMT
            Not After : Jan 28 07:19:13 2038 GMT
        Subject: CN=example.be, OU=ca, C=be, O=example
        Subject Public Key Info:
            Public Key Algorithm: id-ecPublicKey
                Public-Key: (256 bit)
                pub: 
                    04:7e:11:56:ba:28:99:2c:9e:76:7b:fd:92:95:e1:
                    3e:0a:d4:59:37:07:f8:75:91:dc:85:aa:9b:a6:67:
                    62:76:c2:99:35:5f:de:1a:ae:29:56:5d:ff:5e:36:
                    3d:ac:86:2d:66:53:62:9e:43:5b:f1:3d:b9:ff:60:
                    68:c3:65:57:67
                ASN1 OID: prime256v1
                NIST CURVE: P-256
        X509v3 extensions:
            X509v3 Subject Key Identifier: 
                E1:A1:EA:B4:94:89:1B:C8:EA:51:FD:9B:33:F6:D0:FD:0E:D9:0A:DA
            X509v3 Basic Constraints: critical
                CA:TRUE
            X509v3 Key Usage: critical
                Digital Signature, Key Encipherment, Certificate Sign, CRL Sign
            X509v3 Extended Key Usage: 
                Any Extended Key Usage
    Signature Algorithm: ecdsa-with-SHA256
         30:46:02:21:00:92:69:7f:4f:9e:ab:f1:04:c1:1d:b2:09:bb:
         b0:b7:09:c8:c8:7d:90:60:91:d8:5d:a3:47:d5:7e:a1:99:01:
         b1:02:21:00:84:83:ba:ee:02:aa:4e:31:5c:bb:10:53:c4:28:
         48:13:66:f4:f1:31:97:b0:64:f3:60:9b:59:34:6d:53:bb:a5
-----BEGIN CERTIFICATE-----
MIIBzTCCAXKgAwIBAgIJAPzoIpbJSO3oMAoGCCqGSM49BAMCMEExEzARBgNVBAMM
CmV4YW1wbGUuYmUxCzAJBgNVBAsMAmNhMQswCQYDVQQGEwJiZTEQMA4GA1UECgwH
ZXhhbXBsZTAeFw0xODAyMDIwNzE5MTNaFw0zODAxMjgwNzE5MTNaMEExEzARBgNV
BAMMCmV4YW1wbGUuYmUxCzAJBgNVBAsMAmNhMQswCQYDVQQGEwJiZTEQMA4GA1UE
CgwHZXhhbXBsZTBZMBMGByqGSM49AgEGCCqGSM49AwEHA0IABH4RVroomSyednv9
kpXhPgrUWTcH+HWR3IWqm6ZnYnbCmTVf3hquKVZd/142PayGLWZTYp5DW/E9uf9g
aMNlV2ejUzBRMB0GA1UdDgQWBBThoeq0lIkbyOpR/Zsz9tD9DtkK2jAPBgNVHRMB
Af8EBTADAQH/MA4GA1UdDwEB/wQEAwIBpjAPBgNVHSUECDAGBgRVHSUAMAoGCCqG
SM49BAMCA0kAMEYCIQCSaX9PnqvxBMEdsgm7sLcJyMh9kGCR2F2jR9V+oZkBsQIh
AISDuu4Cqk4xXLsQU8QoSBNm9PExl7Bk82CbWTRtU7ul
-----END CERTIFICATE-----
Certificate:
    Data:
        Version: 3 (0x2)
        Serial Number: 13074927343767871763 (0xb57379252d536113)
    Signature Algorithm: ecdsa-with-SHA256
        Issuer: CN=example.be, OU=ca, C=be, O=example
        Validity
            Not Before: Feb  2 07:19:13 2018 GMT
            Not After : Jan 31 07:19:13 2028 GMT
        Subject: C=be, O=example, OU=org1, CN=org1.example.be
        Subject Public Key Info:
            Public Key Algorithm: id-ecPublicKey
                Public-Key: (256 bit)
                pub: 
                    04:25:a1:2d:85:f2:cd:2d:a8:93:53:e9:1f:b8:04:
                    33:37:af:e2:66:36:12:1d:0f:2c:0e:bd:ac:56:14:
                    92:19:bc:e0:d8:e8:66:96:28:b6:e7:3e:c3:67:e3:
                    94:2d:27:74:3e:08:b2:f3:90:82:be:6b:2a:7c:00:
                    8f:f2:16:98:57
                ASN1 OID: prime256v1
                NIST CURVE: P-256
        X509v3 extensions:
            1.2.3.4.5.6.7.8.1: 
                ..{"attrs":{}}
            X509v3 Authority Key Identifier: 
                keyid:E1:A1:EA:B4:94:89:1B:C8:EA:51:FD:9B:33:F6:D0:FD:0E:D9:0A:DA

            X509v3 Basic Constraints: critical
                CA:TRUE
            X509v3 Subject Key Identifier: 
                C3:1E:07:C3:70:32:2C:06:EF:FB:4C:01:84:3E:46:6C:36:1B:00:58
            X509v3 Key Usage: critical
                Digital Signature, Key Encipherment, Certificate Sign, CRL Sign
            X509v3 Extended Key Usage: 
                TLS Web Server Authentication, TLS Web Client Authentication
    Signature Algorithm: ecdsa-with-SHA256
         30:44:02:20:65:54:02:6e:d5:53:ee:2c:cf:61:29:f5:61:f5:
         2b:25:f3:9d:be:6d:04:c0:4a:b6:f5:3f:5a:19:79:9a:39:19:
         02:20:66:de:3c:3c:0c:49:77:d7:88:49:c6:09:c6:d3:2c:d0:
         67:ee:0e:43:e9:76:e2:71:29:07:9e:9d:b1:3a:a6:02
-----BEGIN CERTIFICATE-----
MIICHzCCAcagAwIBAgIJALVzeSUtU2ETMAoGCCqGSM49BAMCMEExEzARBgNVBAMM
CmV4YW1wbGUuYmUxCzAJBgNVBAsMAmNhMQswCQYDVQQGEwJiZTEQMA4GA1UECgwH
ZXhhbXBsZTAeFw0xODAyMDIwNzE5MTNaFw0yODAxMzEwNzE5MTNaMEgxCzAJBgNV
BAYTAmJlMRAwDgYDVQQKDAdleGFtcGxlMQ0wCwYDVQQLDARvcmcxMRgwFgYDVQQD
DA9vcmcxLmV4YW1wbGUuYmUwWTATBgcqhkjOPQIBBggqhkjOPQMBBwNCAAQloS2F
8s0tqJNT6R+4BDM3r+JmNhIdDywOvaxWFJIZvODY6GaWKLbnPsNn45QtJ3Q+CLLz
kIK+ayp8AI/yFphXo4GfMIGcMBoGCCoDBAUGBwgBBA4MDHsiYXR0cnMiOnt9fTAf
BgNVHSMEGDAWgBThoeq0lIkbyOpR/Zsz9tD9DtkK2jAPBgNVHRMBAf8EBTADAQH/
MB0GA1UdDgQWBBTDHgfDcDIsBu/7TAGEPkZsNhsAWDAOBgNVHQ8BAf8EBAMCAaYw
HQYDVR0lBBYwFAYIKwYBBQUHAwEGCCsGAQUFBwMCMAoGCCqGSM49BAMCA0cAMEQC
IGVUAm7VU+4sz2Ep9WH1KyXznb5tBMBKtvU/Whl5mjkZAiBm3jw8DEl314hJxgnG
0yzQZ+4OQ+l24nEpB56dsTqmAg==
-----END CERTIFICATE-----
Certificate:
    Data:
        Version: 3 (0x2)
        Serial Number: 12095260413624553544 (0xa7daff4343ef9048)
    Signature Algorithm: ecdsa-with-SHA256
        Issuer: C=be, O=example, OU=org1, CN=org1.example.be
        Validity
            Not Before: Feb  2 07:19:16 2018 GMT
            Not After : Jan 31 07:19:16 2028 GMT
        Subject: C=be, O=example, OU=org1, CN=user-2.org1.example.be
        Subject Public Key Info:
            Public Key Algorithm: id-ecPublicKey
                Public-Key: (256 bit)
                pub: 
                    04:6c:84:04:46:23:3a:df:be:ca:e7:1d:8c:ab:b2:
                    69:d4:ab:44:f9:67:4e:9f:da:74:09:92:d4:5b:50:
                    11:56:90:34:e3:fa:4c:7f:40:b9:b0:1e:15:38:ad:
                    5b:44:6b:a5:89:de:e1:01:29:a0:16:af:b1:a5:09:
                    10:92:92:b8:ef
                ASN1 OID: prime256v1
                NIST CURVE: P-256
        X509v3 extensions:
            1.2.3.4.5.6.7.8.1: 
                ..{"attrs":{}}
            X509v3 Authority Key Identifier: 
                keyid:C3:1E:07:C3:70:32:2C:06:EF:FB:4C:01:84:3E:46:6C:36:1B:00:58

            X509v3 Basic Constraints: critical
                CA:FALSE
            X509v3 Subject Key Identifier: 
                81:87:76:C6:69:4E:A2:84:FD:B9:91:F5:14:DF:DA:AB:57:D1:CC:D8
            X509v3 Key Usage: critical
                Digital Signature, Key Encipherment
            X509v3 Extended Key Usage: 
                TLS Web Server Authentication, TLS Web Client Authentication
    Signature Algorithm: ecdsa-with-SHA256
         30:46:02:21:00:a0:42:ae:40:dc:cf:9b:b5:e6:ac:d9:9d:a0:
         d8:db:ce:3d:1b:e0:d3:38:62:db:cd:f3:43:66:3c:e0:55:50:
         02:02:21:00:ec:b0:7d:45:7e:f2:e0:a8:80:77:21:d5:17:7d:
         c3:ab:ff:20:4d:26:b7:55:dd:d4:4a:09:b6:d0:88:c4:31:04
-----BEGIN CERTIFICATE-----
MIICLDCCAdGgAwIBAgIJAKfa/0ND75BIMAoGCCqGSM49BAMCMEgxCzAJBgNVBAYT
AmJlMRAwDgYDVQQKDAdleGFtcGxlMQ0wCwYDVQQLDARvcmcxMRgwFgYDVQQDDA9v
cmcxLmV4YW1wbGUuYmUwHhcNMTgwMjAyMDcxOTE2WhcNMjgwMTMxMDcxOTE2WjBP
MQswCQYDVQQGEwJiZTEQMA4GA1UECgwHZXhhbXBsZTENMAsGA1UECwwEb3JnMTEf
MB0GA1UEAwwWdXNlci0yLm9yZzEuZXhhbXBsZS5iZTBZMBMGByqGSM49AgEGCCqG
SM49AwEHA0IABGyEBEYjOt++yucdjKuyadSrRPlnTp/adAmS1FtQEVaQNOP6TH9A
ubAeFTitW0RrpYne4QEpoBavsaUJEJKSuO+jgZwwgZkwGgYIKgMEBQYHCAEEDgwM
eyJhdHRycyI6e319MB8GA1UdIwQYMBaAFMMeB8NwMiwG7/tMAYQ+Rmw2GwBYMAwG
A1UdEwEB/wQCMAAwHQYDVR0OBBYEFIGHdsZpTqKE/bmR9RTf2qtX0czYMA4GA1Ud
DwEB/wQEAwIFoDAdBgNVHSUEFjAUBggrBgEFBQcDAQYIKwYBBQUHAwIwCgYIKoZI
zj0EAwIDSQAwRgIhAKBCrkDcz5u15qzZnaDY2849G+DTOGLbzfNDZjzgVVACAiEA
7LB9RX7y4KiAdyHVF33Dq/8gTSa3Vd3USgm20IjEMQQ=
-----END CERTIFICATE-----
