Certificate:
    Data:
        Version: 3 (0x2)
        Serial Number: 10809358749184693049 (0x96028e830eea1339)
    Signature Algorithm: ecdsa-with-SHA256
        Issuer: C=be, O=example, OU=org1, CN=org1.example.be
        Validity
            Not Before: Feb  2 07:19:16 2018 GMT
            Not After : Jan 31 07:19:16 2028 GMT
        Subject: C=be, O=example, OU=org1, CN=user-2.org1.example.be
        Subject Public Key Info:
            Public Key Algorithm: id-ecPublicKey
                Public-Key: (256 bit)
                pub: 
                    04:bb:34:9f:bb:45:d2:2b:2f:25:64:3a:c4:f8:a6:
                    ac:93:51:86:ee:89:90:a0:a2:4a:c1:c2:08:c5:81:
                    6a:cc:ab:0b:84:85:b7:c9:59:a8:f9:26:65:f7:40:
                    3e:2f:3f:d5:e0:99:17:d6:77:25:43:54:4f:28:aa:
                    a2:88:b0:6e:36
                ASN1 OID: prime256v1
                NIST CURVE: P-256
        X509v3 extensions:
            1.2.3.4.5.6.7.8.1: 
                ..{"attrs":{}}
            X509v3 Authority Key Identifier: 
                keyid:45:C0:17:29:44:2D:3C:C0:F0:18:03:0F:8D:95:51:D2:4A:C9:5C:ED

            X509v3 Basic Constraints: critical
                CA:FALSE
            X509v3 Subject Key Identifier: 
                0B:6A:2E:83:05:4C:A4:80:D2:DD:F2:9B:39:7F:FB:2E:4A:97:5F:33
            X509v3 Key Usage: critical
                Digital Signature
    Signature Algorithm: ecdsa-with-SHA256
         30:45:02:21:00:c0:0e:38:c9:a9:54:63:c3:2b:b6:90:71:07:
         be:aa:e9:df:4b:e2:77:f8:2b:d7:15:9c:86:3f:bb:96:28:29:
         23:02:20:0f:3c:9a:fe:80:46:d4:1f:48:a0:38:61:98:54:d4:
         27:f5:7f:63:be:9c:6f:49:56:94:34:6f:f3:c5:3c:b3:26
-----BEGIN CERTIFICATE-----
MIICCjCCAbCgAwIBAgIJAJYCjoMO6hM5MAoGCCqGSM49BAMCMEgxCzAJBgNVBAYT
AmJlMRAwDgYDVQQKDAdleGFtcGxlMQ0wCwYDVQQLDARvcmcxMRgwFgYDVQQDDA9v
cmcxLmV4YW1wbGUuYmUwHhcNMTgwMjAyMDcxOTE2WhcNMjgwMTMxMDcxOTE2WjBP
MQswCQYDVQQGEwJiZTEQMA4GA1UECgwHZXhhbXBsZTENMAsGA1UECwwEb3JnMTEf
MB0GA1UEAwwWdXNlci0yLm9yZzEuZXhhbXBsZS5iZTBZMBMGByqGSM49AgEGCCqG
SM49AwEHA0IABLs0n7tF0isvJWQ6xPimrJNRhu6JkKCiSsHCCMWBasyrC4SFt8lZ
qPkmZfdAPi8/1eCZF9Z3JUNUTyiqooiwbjajfDB6MBoGCCoDBAUGBwgBBA4MDHsi
YXR0cnMiOnt9fTAfBgNVHSMEGDAWgBRFwBcpRC08wPAYAw+NlVHSSslc7TAMBgNV
HRMBAf8EAjAAMB0GA1UdDgQWBBQLai6DBUykgNLd8ps5f/suSpdfMzAOBgNVHQ8B
Af8EBAMCB4AwCgYIKoZIzj0EAwIDSAAwRQIhAMAOOMmpVGPDK7aQcQe+qunfS+J3
+CvXFZyGP7uWKCkjAiAPPJr+gEbUH0igOGGYVNQn9X9jvpxvSVaUNG/zxTyzJg==
-----END CERTIFICATE-----
