Certificate:
    Data:
        Version: 3 (0x2)
        Serial Number: 11972398215209709641 (0xa62680be87187049)
    Signature Algorithm: ecdsa-with-SHA256
        Issuer: C=be, O=example, OU=org1, CN=org1.example.be
        Validity
            Not Before: Feb  2 07:19:17 2018 GMT
            Not After : Jan 31 07:19:17 2028 GMT
        Subject: C=be, O=example, OU=org1, CN=orderer.org1.example.be
        Subject Public Key Info:
            Public Key Algorithm: id-ecPublicKey
                Public-Key: (256 bit)
                pub: 
                    04:39:33:32:3f:ab:92:34:c7:f3:97:cc:2d:80:29:
                    11:88:cc:ee:27:b7:d5:1b:9d:9a:3e:43:4e:53:6c:
                    68:86:f2:00:cf:2f:f0:c7:81:d5:e3:57:a2:8a:1e:
                    ed:f1:a2:31:6d:99:62:66:2a:17:5d:41:f2:e4:d5:
                    1c:4f:93:09:c3
                ASN1 OID: prime256v1
                NIST CURVE: P-256
        X509v3 extensions:
            1.2.3.4.5.6.7.8.1: 
                ..{"attrs":{}}
            X509v3 Authority Key Identifier: 
                keyid:45:C0:17:29:44:2D:3C:C0:F0:18:03:0F:8D:95:51:D2:4A:C9:5C:ED

            X509v3 Basic Constraints: critical
                CA:FALSE
            X509v3 Subject Key Identifier: 
                D6:E6:7A:3A:CB:D7:E0:A5:F2:BD:46:57:60:08:B2:D6:9F:B1:69:5A
            X509v3 Key Usage: critical
                Digital Signature
    Signature Algorithm: ecdsa-with-SHA256
         30:44:02:20:63:62:42:5c:28:74:db:46:4b:86:80:75:f3:ad:
         d8:66:a6:26:55:0c:fe:dd:07:83:35:c8:09:75:bc:94:d9:f4:
         02:20:01:2a:ad:8c:78:fd:97:d5:33:20:36:74:dd:c8:a3:fd:
         39:b1:a7:7d:ef:11:ab:66:f7:b8:ff:84:53:74:41:bd
-----BEGIN CERTIFICATE-----
MIICCjCCAbGgAwIBAgIJAKYmgL6HGHBJMAoGCCqGSM49BAMCMEgxCzAJBgNVBAYT
AmJlMRAwDgYDVQQKDAdleGFtcGxlMQ0wCwYDVQQLDARvcmcxMRgwFgYDVQQDDA9v
cmcxLmV4YW1wbGUuYmUwHhcNMTgwMjAyMDcxOTE3WhcNMjgwMTMxMDcxOTE3WjBQ
MQswCQYDVQQGEwJiZTEQMA4GA1UECgwHZXhhbXBsZTENMAsGA1UECwwEb3JnMTEg
MB4GA1UEAwwXb3JkZXJlci5vcmcxLmV4YW1wbGUuYmUwWTATBgcqhkjOPQIBBggq
hkjOPQMBBwNCAAQ5MzI/q5I0x/OXzC2AKRGIzO4nt9UbnZo+Q05TbGiG8gDPL/DH
gdXjV6KKHu3xojFtmWJmKhddQfLk1RxPkwnDo3wwejAaBggqAwQFBgcIAQQODAx7
ImF0dHJzIjp7fX0wHwYDVR0jBBgwFoAURcAXKUQtPMDwGAMPjZVR0krJXO0wDAYD
VR0TAQH/BAIwADAdBgNVHQ4EFgQU1uZ6OsvX4KXyvUZXYAiy1p+xaVowDgYDVR0P
AQH/BAQDAgeAMAoGCCqGSM49BAMCA0cAMEQCIGNiQlwodNtGS4aAdfOt2GamJlUM
/t0HgzXICXW8lNn0AiABKq2MeP2X1TMgNnTdyKP9ObGnfe8Rq2b3uP+EU3RBvQ==
-----END CERTIFICATE-----
